
target/thumbv7em-none-eabihf/debug/examples/blink:     file format elf32-littlearm


Disassembly of section .text:

00000400 <Reset>:
     400:	f04f 34ff 	mov.w	r4, #4294967295	; 0xffffffff
     404:	46a6      	mov	lr, r4
     406:	f001 f83c 	bl	1482 <DefaultPreInit>
     40a:	46a6      	mov	lr, r4
     40c:	480e      	ldr	r0, [pc, #56]	; (448 <Reset+0x48>)
     40e:	490f      	ldr	r1, [pc, #60]	; (44c <Reset+0x4c>)
     410:	2200      	movs	r2, #0
     412:	4281      	cmp	r1, r0
     414:	d001      	beq.n	41a <Reset+0x1a>
     416:	c004      	stmia	r0!, {r2}
     418:	e7fb      	b.n	412 <Reset+0x12>
     41a:	480d      	ldr	r0, [pc, #52]	; (450 <Reset+0x50>)
     41c:	490d      	ldr	r1, [pc, #52]	; (454 <Reset+0x54>)
     41e:	4a0e      	ldr	r2, [pc, #56]	; (458 <Reset+0x58>)
     420:	4281      	cmp	r1, r0
     422:	d002      	beq.n	42a <Reset+0x2a>
     424:	ca08      	ldmia	r2!, {r3}
     426:	c008      	stmia	r0!, {r3}
     428:	e7fa      	b.n	420 <Reset+0x20>
     42a:	480c      	ldr	r0, [pc, #48]	; (45c <Reset+0x5c>)
     42c:	f44f 0170 	mov.w	r1, #15728640	; 0xf00000
     430:	6802      	ldr	r2, [r0, #0]
     432:	430a      	orrs	r2, r1
     434:	6002      	str	r2, [r0, #0]
     436:	f3bf 8f4f 	dsb	sy
     43a:	f3bf 8f6f 	isb	sy
     43e:	b500      	push	{lr}
     440:	f001 fbb9 	bl	1bb6 <main>
     444:	de00      	udf	#0
     446:	0000      	.short	0x0000
     448:	20000008 	.word	0x20000008
     44c:	2000000c 	.word	0x2000000c
     450:	20000000 	.word	0x20000000
     454:	20000008 	.word	0x20000008
     458:	00002174 	.word	0x00002174
     45c:	e000ed88 	.word	0xe000ed88

00000460 <stellaris_main>:
     460:	b580      	push	{r7, lr}
     462:	466f      	mov	r7, sp
     464:	b08e      	sub	sp, #56	; 0x38
     466:	f001 fc22 	bl	1cae <_ZN12tm4c129x_hal4gpio5gpioa82_$LT$impl$u20$tm4c129x_hal..gpio..GpioExt$u20$for$u20$tm4c129x..GPIO_PORTA_AHB$GT$5split17h9919a6992afad3dfE>
     46a:	f248 502c 	movw	r0, #34092	; 0x852c
     46e:	2401      	movs	r4, #1
     470:	f2c4 0005 	movt	r0, #16389	; 0x4005
     474:	f24a 1380 	movw	r3, #41344	; 0xa180
     478:	6801      	ldr	r1, [r0, #0]
     47a:	2200      	movs	r2, #0
     47c:	f2c4 23b0 	movt	r3, #17072	; 0x42b0
     480:	f364 1107 	bfi	r1, r4, #4, #4
     484:	6001      	str	r1, [r0, #0]
     486:	f248 4104 	movw	r1, #33796	; 0x8404
     48a:	f2c4 21b0 	movt	r1, #17072	; 0x42b0
     48e:	600c      	str	r4, [r1, #0]
     490:	f248 0100 	movw	r1, #32768	; 0x8000
     494:	f2c4 21b0 	movt	r1, #17072	; 0x42b0
     498:	604a      	str	r2, [r1, #4]
     49a:	605a      	str	r2, [r3, #4]
     49c:	f8c3 2084 	str.w	r2, [r3, #132]	; 0x84
     4a0:	f8c3 2104 	str.w	r2, [r3, #260]	; 0x104
     4a4:	f8c3 4204 	str.w	r4, [r3, #516]	; 0x204
     4a8:	6806      	ldr	r6, [r0, #0]
     4aa:	f364 0603 	bfi	r6, r4, #0, #4
     4ae:	6006      	str	r6, [r0, #0]
     4b0:	f8c1 4400 	str.w	r4, [r1, #1024]	; 0x400
     4b4:	600a      	str	r2, [r1, #0]
     4b6:	601a      	str	r2, [r3, #0]
     4b8:	f8c3 2080 	str.w	r2, [r3, #128]	; 0x80
     4bc:	f8c3 2100 	str.w	r2, [r3, #256]	; 0x100
     4c0:	f8c3 4200 	str.w	r4, [r3, #512]	; 0x200
     4c4:	f000 ffde 	bl	1484 <_ZN12tm4c129x_hal6serial51Serial$LT$tm4c129x..UART0$C$TX$C$RX$C$RTS$C$CTS$GT$5uart017h4f4c8256c7b8a5efE>
     4c8:	f24e 0010 	movw	r0, #57360	; 0xe010
     4cc:	f24c 0600 	movw	r6, #49152	; 0xc000
     4d0:	f2ce 0000 	movt	r0, #57344	; 0xe000
     4d4:	f2c4 0600 	movt	r6, #16384	; 0x4000
     4d8:	6801      	ldr	r1, [r0, #0]
     4da:	f041 0104 	orr.w	r1, r1, #4
     4de:	6001      	str	r1, [r0, #0]
     4e0:	f240 0100 	movw	r1, #0
     4e4:	f64c 70c8 	movw	r0, #53192	; 0xcfc8
     4e8:	f2c2 0100 	movt	r1, #8192	; 0x2000
     4ec:	f2c4 000e 	movt	r0, #16398	; 0x400e
     4f0:	684d      	ldr	r5, [r1, #4]
     4f2:	f24c 0140 	movw	r1, #49216	; 0xc040
     4f6:	f2c4 010e 	movt	r1, #16398	; 0x400e
     4fa:	6800      	ldr	r0, [r0, #0]
     4fc:	6808      	ldr	r0, [r1, #0]
     4fe:	f807 4c2d 	strb.w	r4, [r7, #-45]
     502:	6848      	ldr	r0, [r1, #4]
     504:	6888      	ldr	r0, [r1, #8]
     506:	f641 6040 	movw	r0, #7744	; 0x1e40
     50a:	68ca      	ldr	r2, [r1, #12]
     50c:	690a      	ldr	r2, [r1, #16]
     50e:	f2c0 0000 	movt	r0, #0
     512:	6949      	ldr	r1, [r1, #20]
     514:	4601      	mov	r1, r0
     516:	780a      	ldrb	r2, [r1, #0]
     518:	69b3      	ldr	r3, [r6, #24]
     51a:	069b      	lsls	r3, r3, #26
     51c:	d4fc      	bmi.n	518 <stellaris_main+0xb8>
     51e:	6032      	str	r2, [r6, #0]
     520:	3101      	adds	r1, #1
     522:	f100 021b 	add.w	r2, r0, #27
     526:	4291      	cmp	r1, r2
     528:	d1f5      	bne.n	516 <stellaris_main+0xb6>
     52a:	f242 0a84 	movw	sl, #8324	; 0x2084
     52e:	f641 68b8 	movw	r8, #7864	; 0x1eb8
     532:	f10d 0b1c 	add.w	fp, sp, #28
     536:	ac08      	add	r4, sp, #32
     538:	9501      	str	r5, [sp, #4]
     53a:	2500      	movs	r5, #0
     53c:	f04f 0901 	mov.w	r9, #1
     540:	f2c0 0a00 	movt	sl, #0
     544:	f2c0 0800 	movt	r8, #0
     548:	9503      	str	r5, [sp, #12]
     54a:	f241 3033 	movw	r0, #4915	; 0x1333
     54e:	f8cd 9034 	str.w	r9, [sp, #52]	; 0x34
     552:	f2c0 0000 	movt	r0, #0
     556:	e9cd 550a 	strd	r5, r5, [sp, #40]	; 0x28
     55a:	9006      	str	r0, [sp, #24]
     55c:	a803      	add	r0, sp, #12
     55e:	9005      	str	r0, [sp, #20]
     560:	f1a7 002d 	sub.w	r0, r7, #45	; 0x2d
     564:	9007      	str	r0, [sp, #28]
     566:	a805      	add	r0, sp, #20
     568:	900c      	str	r0, [sp, #48]	; 0x30
     56a:	2002      	movs	r0, #2
     56c:	9009      	str	r0, [sp, #36]	; 0x24
     56e:	f641 6074 	movw	r0, #7796	; 0x1e74
     572:	f2c0 0000 	movt	r0, #0
     576:	9008      	str	r0, [sp, #32]
     578:	4658      	mov	r0, fp
     57a:	4651      	mov	r1, sl
     57c:	4622      	mov	r2, r4
     57e:	f000 f98f 	bl	8a0 <_ZN4core3fmt5write17habbe2038e9c9aa1cE>
     582:	69b0      	ldr	r0, [r6, #24]
     584:	06c0      	lsls	r0, r0, #27
     586:	d417      	bmi.n	5b8 <stellaris_main+0x158>
     588:	6830      	ldr	r0, [r6, #0]
     58a:	f807 0c25 	strb.w	r0, [r7, #-37]
     58e:	f241 10ff 	movw	r0, #4607	; 0x11ff
     592:	f2c0 0000 	movt	r0, #0
     596:	f8cd 9034 	str.w	r9, [sp, #52]	; 0x34
     59a:	9006      	str	r0, [sp, #24]
     59c:	f1a7 0025 	sub.w	r0, r7, #37	; 0x25
     5a0:	9005      	str	r0, [sp, #20]
     5a2:	f1a7 002d 	sub.w	r0, r7, #45	; 0x2d
     5a6:	9007      	str	r0, [sp, #28]
     5a8:	a805      	add	r0, sp, #20
     5aa:	900c      	str	r0, [sp, #48]	; 0x30
     5ac:	2002      	movs	r0, #2
     5ae:	e9cd 550a 	strd	r5, r5, [sp, #40]	; 0x28
     5b2:	e9cd 8008 	strd	r8, r0, [sp, #32]
     5b6:	e7df      	b.n	578 <stellaris_main+0x118>
     5b8:	9803      	ldr	r0, [sp, #12]
     5ba:	3001      	adds	r0, #1
     5bc:	d659      	bvs.n	672 <stellaris_main+0x212>
     5be:	f647 7180 	movw	r1, #32640	; 0x7f80
     5c2:	f2c4 21c0 	movt	r1, #17088	; 0x42c0
     5c6:	6809      	ldr	r1, [r1, #0]
     5c8:	9003      	str	r0, [sp, #12]
     5ca:	f647 7080 	movw	r0, #32640	; 0x7f80
     5ce:	f2c4 20c8 	movt	r0, #17096	; 0x42c8
     5d2:	b3d1      	cbz	r1, 64a <stellaris_main+0x1ea>
     5d4:	6045      	str	r5, [r0, #4]
     5d6:	f24d 0190 	movw	r1, #53392	; 0xd090
     5da:	f8c0 9000 	str.w	r9, [r0]
     5de:	f2c0 0103 	movt	r1, #3
     5e2:	9801      	ldr	r0, [sp, #4]
     5e4:	f001 fb9e 	bl	1d24 <_ZN92_$LT$tm4c_hal..delay..Delay$u20$as$u20$embedded_hal..blocking..delay..DelayUs$LT$u32$GT$$GT$8delay_us17h8d907488eb0af264E>
     5e8:	f647 7080 	movw	r0, #32640	; 0x7f80
     5ec:	f24d 0190 	movw	r1, #53392	; 0xd090
     5f0:	f2c4 20c8 	movt	r0, #17096	; 0x42c8
     5f4:	f2c0 0103 	movt	r1, #3
     5f8:	6005      	str	r5, [r0, #0]
     5fa:	f647 7080 	movw	r0, #32640	; 0x7f80
     5fe:	f2c4 20ba 	movt	r0, #17082	; 0x42ba
     602:	f8c0 9010 	str.w	r9, [r0, #16]
     606:	9801      	ldr	r0, [sp, #4]
     608:	f001 fb8c 	bl	1d24 <_ZN92_$LT$tm4c_hal..delay..Delay$u20$as$u20$embedded_hal..blocking..delay..DelayUs$LT$u32$GT$$GT$8delay_us17h8d907488eb0af264E>
     60c:	f647 7080 	movw	r0, #32640	; 0x7f80
     610:	f24d 0190 	movw	r1, #53392	; 0xd090
     614:	f2c4 20ba 	movt	r0, #17082	; 0x42ba
     618:	f2c0 0103 	movt	r1, #3
     61c:	6105      	str	r5, [r0, #16]
     61e:	f8c0 9000 	str.w	r9, [r0]
     622:	9801      	ldr	r0, [sp, #4]
     624:	f001 fb7e 	bl	1d24 <_ZN92_$LT$tm4c_hal..delay..Delay$u20$as$u20$embedded_hal..blocking..delay..DelayUs$LT$u32$GT$$GT$8delay_us17h8d907488eb0af264E>
     628:	f647 7280 	movw	r2, #32640	; 0x7f80
     62c:	9801      	ldr	r0, [sp, #4]
     62e:	f2c4 22ba 	movt	r2, #17082	; 0x42ba
     632:	f24d 0190 	movw	r1, #53392	; 0xd090
     636:	6015      	str	r5, [r2, #0]
     638:	f647 7280 	movw	r2, #32640	; 0x7f80
     63c:	f2c4 22c8 	movt	r2, #17096	; 0x42c8
     640:	f2c0 0103 	movt	r1, #3
     644:	f8c2 9004 	str.w	r9, [r2, #4]
     648:	e010      	b.n	66c <stellaris_main+0x20c>
     64a:	f8c0 9004 	str.w	r9, [r0, #4]
     64e:	f24d 0190 	movw	r1, #53392	; 0xd090
     652:	f8c0 9000 	str.w	r9, [r0]
     656:	f647 7080 	movw	r0, #32640	; 0x7f80
     65a:	f2c4 20ba 	movt	r0, #17082	; 0x42ba
     65e:	f2c0 0103 	movt	r1, #3
     662:	f8c0 9010 	str.w	r9, [r0, #16]
     666:	f8c0 9000 	str.w	r9, [r0]
     66a:	9801      	ldr	r0, [sp, #4]
     66c:	f001 fb5a 	bl	1d24 <_ZN92_$LT$tm4c_hal..delay..Delay$u20$as$u20$embedded_hal..blocking..delay..DelayUs$LT$u32$GT$$GT$8delay_us17h8d907488eb0af264E>
     670:	e76b      	b.n	54a <stellaris_main+0xea>
     672:	f641 6090 	movw	r0, #7824	; 0x1e90
     676:	211c      	movs	r1, #28
     678:	f2c0 0000 	movt	r0, #0
     67c:	f000 f90b 	bl	896 <_ZN4core9panicking5panic17h3b40e675b01166f8E>
     680:	defe      	udf	#254	; 0xfe

00000682 <_ZN4core3ops8function6FnOnce9call_once17hd8ff06487173a1ebE>:
     682:	6800      	ldr	r0, [r0, #0]
     684:	e7fe      	b.n	684 <_ZN4core3ops8function6FnOnce9call_once17hd8ff06487173a1ebE+0x2>

00000686 <_ZN4core9panicking9panic_fmt17he9bb63f6e49b9efeE>:
     686:	b580      	push	{r7, lr}
     688:	466f      	mov	r7, sp
     68a:	f001 fa55 	bl	1b38 <rust_begin_unwind>
     68e:	defe      	udf	#254	; 0xfe

00000690 <_ZN4core3ptr102drop_in_place$LT$$RF$core..iter..adapters..copied..Copied$LT$core..slice..iter..Iter$LT$u8$GT$$GT$$GT$17h584e996aed567e77E>:
     690:	4770      	bx	lr

00000692 <_ZN4core3fmt9Formatter12pad_integral17h54d3eb9f4808425fE>:
     692:	b5f0      	push	{r4, r5, r6, r7, lr}
     694:	af03      	add	r7, sp, #12
     696:	e92d 0f00 	stmdb	sp!, {r8, r9, sl, fp}
     69a:	b085      	sub	sp, #20
     69c:	68fe      	ldr	r6, [r7, #12]
     69e:	4699      	mov	r9, r3
     6a0:	4605      	mov	r5, r0
     6a2:	b151      	cbz	r1, 6ba <_ZN4core3fmt9Formatter12pad_integral17h54d3eb9f4808425fE+0x28>
     6a4:	6828      	ldr	r0, [r5, #0]
     6a6:	f04f 0b2b 	mov.w	fp, #43	; 0x2b
     6aa:	f010 0101 	ands.w	r1, r0, #1
     6ae:	bf08      	it	eq
     6b0:	f44f 1b88 	moveq.w	fp, #1114112	; 0x110000
     6b4:	eb01 0a06 	add.w	sl, r1, r6
     6b8:	e004      	b.n	6c4 <_ZN4core3fmt9Formatter12pad_integral17h54d3eb9f4808425fE+0x32>
     6ba:	6828      	ldr	r0, [r5, #0]
     6bc:	f106 0a01 	add.w	sl, r6, #1
     6c0:	f04f 0b2d 	mov.w	fp, #45	; 0x2d
     6c4:	68bc      	ldr	r4, [r7, #8]
     6c6:	0741      	lsls	r1, r0, #29
     6c8:	d403      	bmi.n	6d2 <_ZN4core3fmt9Formatter12pad_integral17h54d3eb9f4808425fE+0x40>
     6ca:	2200      	movs	r2, #0
     6cc:	f04f 0900 	mov.w	r9, #0
     6d0:	e018      	b.n	704 <_ZN4core3fmt9Formatter12pad_integral17h54d3eb9f4808425fE+0x72>
     6d2:	f1b9 0f00 	cmp.w	r9, #0
     6d6:	d012      	beq.n	6fe <_ZN4core3fmt9Formatter12pad_integral17h54d3eb9f4808425fE+0x6c>
     6d8:	f019 0303 	ands.w	r3, r9, #3
     6dc:	d011      	beq.n	702 <_ZN4core3fmt9Formatter12pad_integral17h54d3eb9f4808425fE+0x70>
     6de:	f992 c000 	ldrsb.w	ip, [r2]
     6e2:	2100      	movs	r1, #0
     6e4:	f11c 0f41 	cmn.w	ip, #65	; 0x41
     6e8:	bfc8      	it	gt
     6ea:	2101      	movgt	r1, #1
     6ec:	2b01      	cmp	r3, #1
     6ee:	d008      	beq.n	702 <_ZN4core3fmt9Formatter12pad_integral17h54d3eb9f4808425fE+0x70>
     6f0:	f992 3001 	ldrsb.w	r3, [r2, #1]
     6f4:	f113 0f41 	cmn.w	r3, #65	; 0x41
     6f8:	bfc8      	it	gt
     6fa:	3101      	addgt	r1, #1
     6fc:	e001      	b.n	702 <_ZN4core3fmt9Formatter12pad_integral17h54d3eb9f4808425fE+0x70>
     6fe:	2100      	movs	r1, #0
     700:	e7ff      	b.n	702 <_ZN4core3fmt9Formatter12pad_integral17h54d3eb9f4808425fE+0x70>
     702:	448a      	add	sl, r1
     704:	68a9      	ldr	r1, [r5, #8]
     706:	2901      	cmp	r1, #1
     708:	d118      	bne.n	73c <_ZN4core3fmt9Formatter12pad_integral17h54d3eb9f4808425fE+0xaa>
     70a:	f8d5 800c 	ldr.w	r8, [r5, #12]
     70e:	9204      	str	r2, [sp, #16]
     710:	45d0      	cmp	r8, sl
     712:	d912      	bls.n	73a <_ZN4core3fmt9Formatter12pad_integral17h54d3eb9f4808425fE+0xa8>
     714:	0700      	lsls	r0, r0, #28
     716:	9403      	str	r4, [sp, #12]
     718:	d427      	bmi.n	76a <_ZN4core3fmt9Formatter12pad_integral17h54d3eb9f4808425fE+0xd8>
     71a:	f895 1020 	ldrb.w	r1, [r5, #32]
     71e:	eba8 000a 	sub.w	r0, r8, sl
     722:	2903      	cmp	r1, #3
     724:	bf08      	it	eq
     726:	2101      	moveq	r1, #1
     728:	078a      	lsls	r2, r1, #30
     72a:	9601      	str	r6, [sp, #4]
     72c:	d03e      	beq.n	7ac <_ZN4core3fmt9Formatter12pad_integral17h54d3eb9f4808425fE+0x11a>
     72e:	2901      	cmp	r1, #1
     730:	d13e      	bne.n	7b0 <_ZN4core3fmt9Formatter12pad_integral17h54d3eb9f4808425fE+0x11e>
     732:	2100      	movs	r1, #0
     734:	9102      	str	r1, [sp, #8]
     736:	4601      	mov	r1, r0
     738:	e03e      	b.n	7b8 <_ZN4core3fmt9Formatter12pad_integral17h54d3eb9f4808425fE+0x126>
     73a:	9a04      	ldr	r2, [sp, #16]
     73c:	4628      	mov	r0, r5
     73e:	4659      	mov	r1, fp
     740:	464b      	mov	r3, r9
     742:	f000 f881 	bl	848 <_ZN4core3fmt9Formatter12pad_integral12write_prefix17hc8245ff642c88cbdE>
     746:	b128      	cbz	r0, 754 <_ZN4core3fmt9Formatter12pad_integral17h54d3eb9f4808425fE+0xc2>
     748:	2401      	movs	r4, #1
     74a:	4620      	mov	r0, r4
     74c:	b005      	add	sp, #20
     74e:	e8bd 0f00 	ldmia.w	sp!, {r8, r9, sl, fp}
     752:	bdf0      	pop	{r4, r5, r6, r7, pc}
     754:	69e9      	ldr	r1, [r5, #28]
     756:	4632      	mov	r2, r6
     758:	69a8      	ldr	r0, [r5, #24]
     75a:	68cb      	ldr	r3, [r1, #12]
     75c:	4621      	mov	r1, r4
     75e:	b005      	add	sp, #20
     760:	e8bd 0f00 	ldmia.w	sp!, {r8, r9, sl, fp}
     764:	e8bd 40f0 	ldmia.w	sp!, {r4, r5, r6, r7, lr}
     768:	4718      	bx	r3
     76a:	6868      	ldr	r0, [r5, #4]
     76c:	2401      	movs	r4, #1
     76e:	f895 1020 	ldrb.w	r1, [r5, #32]
     772:	464b      	mov	r3, r9
     774:	9002      	str	r0, [sp, #8]
     776:	2030      	movs	r0, #48	; 0x30
     778:	9100      	str	r1, [sp, #0]
     77a:	4659      	mov	r1, fp
     77c:	9a04      	ldr	r2, [sp, #16]
     77e:	6068      	str	r0, [r5, #4]
     780:	4628      	mov	r0, r5
     782:	f885 4020 	strb.w	r4, [r5, #32]
     786:	f000 f85f 	bl	848 <_ZN4core3fmt9Formatter12pad_integral12write_prefix17hc8245ff642c88cbdE>
     78a:	2800      	cmp	r0, #0
     78c:	d1dd      	bne.n	74a <_ZN4core3fmt9Formatter12pad_integral17h54d3eb9f4808425fE+0xb8>
     78e:	46b3      	mov	fp, r6
     790:	eba8 000a 	sub.w	r0, r8, sl
     794:	e9d5 9606 	ldrd	r9, r6, [r5, #24]
     798:	1c44      	adds	r4, r0, #1
     79a:	3c01      	subs	r4, #1
     79c:	d03f      	beq.n	81e <_ZN4core3fmt9Formatter12pad_integral17h54d3eb9f4808425fE+0x18c>
     79e:	6932      	ldr	r2, [r6, #16]
     7a0:	4648      	mov	r0, r9
     7a2:	2130      	movs	r1, #48	; 0x30
     7a4:	4790      	blx	r2
     7a6:	2800      	cmp	r0, #0
     7a8:	d0f7      	beq.n	79a <_ZN4core3fmt9Formatter12pad_integral17h54d3eb9f4808425fE+0x108>
     7aa:	e7cd      	b.n	748 <_ZN4core3fmt9Formatter12pad_integral17h54d3eb9f4808425fE+0xb6>
     7ac:	2100      	movs	r1, #0
     7ae:	e002      	b.n	7b6 <_ZN4core3fmt9Formatter12pad_integral17h54d3eb9f4808425fE+0x124>
     7b0:	0841      	lsrs	r1, r0, #1
     7b2:	3001      	adds	r0, #1
     7b4:	0840      	lsrs	r0, r0, #1
     7b6:	9002      	str	r0, [sp, #8]
     7b8:	686c      	ldr	r4, [r5, #4]
     7ba:	1c4e      	adds	r6, r1, #1
     7bc:	e9d5 8a06 	ldrd	r8, sl, [r5, #24]
     7c0:	3e01      	subs	r6, #1
     7c2:	d007      	beq.n	7d4 <_ZN4core3fmt9Formatter12pad_integral17h54d3eb9f4808425fE+0x142>
     7c4:	f8da 2010 	ldr.w	r2, [sl, #16]
     7c8:	4640      	mov	r0, r8
     7ca:	4621      	mov	r1, r4
     7cc:	4790      	blx	r2
     7ce:	2800      	cmp	r0, #0
     7d0:	d0f6      	beq.n	7c0 <_ZN4core3fmt9Formatter12pad_integral17h54d3eb9f4808425fE+0x12e>
     7d2:	e7b9      	b.n	748 <_ZN4core3fmt9Formatter12pad_integral17h54d3eb9f4808425fE+0xb6>
     7d4:	f5b4 1688 	subs.w	r6, r4, #1114112	; 0x110000
     7d8:	9802      	ldr	r0, [sp, #8]
     7da:	bf18      	it	ne
     7dc:	4606      	movne	r6, r0
     7de:	f5b4 1f88 	cmp.w	r4, #1114112	; 0x110000
     7e2:	d0b1      	beq.n	748 <_ZN4core3fmt9Formatter12pad_integral17h54d3eb9f4808425fE+0xb6>
     7e4:	9a04      	ldr	r2, [sp, #16]
     7e6:	4628      	mov	r0, r5
     7e8:	4659      	mov	r1, fp
     7ea:	464b      	mov	r3, r9
     7ec:	f000 f82c 	bl	848 <_ZN4core3fmt9Formatter12pad_integral12write_prefix17hc8245ff642c88cbdE>
     7f0:	2800      	cmp	r0, #0
     7f2:	d1a9      	bne.n	748 <_ZN4core3fmt9Formatter12pad_integral17h54d3eb9f4808425fE+0xb6>
     7f4:	f8da 300c 	ldr.w	r3, [sl, #12]
     7f8:	4640      	mov	r0, r8
     7fa:	9903      	ldr	r1, [sp, #12]
     7fc:	9a01      	ldr	r2, [sp, #4]
     7fe:	4798      	blx	r3
     800:	2800      	cmp	r0, #0
     802:	d1a1      	bne.n	748 <_ZN4core3fmt9Formatter12pad_integral17h54d3eb9f4808425fE+0xb6>
     804:	2500      	movs	r5, #0
     806:	42ae      	cmp	r6, r5
     808:	d018      	beq.n	83c <_ZN4core3fmt9Formatter12pad_integral17h54d3eb9f4808425fE+0x1aa>
     80a:	f8da 2010 	ldr.w	r2, [sl, #16]
     80e:	4640      	mov	r0, r8
     810:	4621      	mov	r1, r4
     812:	4790      	blx	r2
     814:	3501      	adds	r5, #1
     816:	2800      	cmp	r0, #0
     818:	d0f5      	beq.n	806 <_ZN4core3fmt9Formatter12pad_integral17h54d3eb9f4808425fE+0x174>
     81a:	1e68      	subs	r0, r5, #1
     81c:	e00f      	b.n	83e <_ZN4core3fmt9Formatter12pad_integral17h54d3eb9f4808425fE+0x1ac>
     81e:	68f3      	ldr	r3, [r6, #12]
     820:	4648      	mov	r0, r9
     822:	9903      	ldr	r1, [sp, #12]
     824:	465a      	mov	r2, fp
     826:	4798      	blx	r3
     828:	2800      	cmp	r0, #0
     82a:	f47f af8d 	bne.w	748 <_ZN4core3fmt9Formatter12pad_integral17h54d3eb9f4808425fE+0xb6>
     82e:	9800      	ldr	r0, [sp, #0]
     830:	2400      	movs	r4, #0
     832:	f885 0020 	strb.w	r0, [r5, #32]
     836:	9802      	ldr	r0, [sp, #8]
     838:	6068      	str	r0, [r5, #4]
     83a:	e786      	b.n	74a <_ZN4core3fmt9Formatter12pad_integral17h54d3eb9f4808425fE+0xb8>
     83c:	4630      	mov	r0, r6
     83e:	2400      	movs	r4, #0
     840:	42b0      	cmp	r0, r6
     842:	bf38      	it	cc
     844:	2401      	movcc	r4, #1
     846:	e780      	b.n	74a <_ZN4core3fmt9Formatter12pad_integral17h54d3eb9f4808425fE+0xb8>

00000848 <_ZN4core3fmt9Formatter12pad_integral12write_prefix17hc8245ff642c88cbdE>:
     848:	b5f0      	push	{r4, r5, r6, r7, lr}
     84a:	af03      	add	r7, sp, #12
     84c:	f84d bd04 	str.w	fp, [sp, #-4]!
     850:	461c      	mov	r4, r3
     852:	4615      	mov	r5, r2
     854:	4606      	mov	r6, r0
     856:	f5b1 1f88 	cmp.w	r1, #1114112	; 0x110000
     85a:	d008      	beq.n	86e <_ZN4core3fmt9Formatter12pad_integral12write_prefix17hc8245ff642c88cbdE+0x26>
     85c:	e9d6 0206 	ldrd	r0, r2, [r6, #24]
     860:	6912      	ldr	r2, [r2, #16]
     862:	4790      	blx	r2
     864:	b118      	cbz	r0, 86e <_ZN4core3fmt9Formatter12pad_integral12write_prefix17hc8245ff642c88cbdE+0x26>
     866:	2001      	movs	r0, #1
     868:	f85d bb04 	ldr.w	fp, [sp], #4
     86c:	bdf0      	pop	{r4, r5, r6, r7, pc}
     86e:	b14d      	cbz	r5, 884 <_ZN4core3fmt9Formatter12pad_integral12write_prefix17hc8245ff642c88cbdE+0x3c>
     870:	e9d6 0106 	ldrd	r0, r1, [r6, #24]
     874:	4622      	mov	r2, r4
     876:	68cb      	ldr	r3, [r1, #12]
     878:	4629      	mov	r1, r5
     87a:	f85d bb04 	ldr.w	fp, [sp], #4
     87e:	e8bd 40f0 	ldmia.w	sp!, {r4, r5, r6, r7, lr}
     882:	4718      	bx	r3
     884:	2000      	movs	r0, #0
     886:	f85d bb04 	ldr.w	fp, [sp], #4
     88a:	bdf0      	pop	{r4, r5, r6, r7, pc}

0000088c <_ZN4core5slice5index26slice_start_index_len_fail17h4ce40613b75cbd5eE>:
     88c:	b580      	push	{r7, lr}
     88e:	466f      	mov	r7, sp
     890:	f7ff fef9 	bl	686 <_ZN4core9panicking9panic_fmt17he9bb63f6e49b9efeE>
     894:	defe      	udf	#254	; 0xfe

00000896 <_ZN4core9panicking5panic17h3b40e675b01166f8E>:
     896:	b580      	push	{r7, lr}
     898:	466f      	mov	r7, sp
     89a:	f7ff fef4 	bl	686 <_ZN4core9panicking9panic_fmt17he9bb63f6e49b9efeE>
     89e:	defe      	udf	#254	; 0xfe

000008a0 <_ZN4core3fmt5write17habbe2038e9c9aa1cE>:
     8a0:	b5f0      	push	{r4, r5, r6, r7, lr}
     8a2:	af03      	add	r7, sp, #12
     8a4:	e92d 0f00 	stmdb	sp!, {r8, r9, sl, fp}
     8a8:	b08b      	sub	sp, #44	; 0x2c
     8aa:	4693      	mov	fp, r2
     8ac:	2203      	movs	r2, #3
     8ae:	f8db a008 	ldr.w	sl, [fp, #8]
     8b2:	f88d 2028 	strb.w	r2, [sp, #40]	; 0x28
     8b6:	2220      	movs	r2, #32
     8b8:	9203      	str	r2, [sp, #12]
     8ba:	2200      	movs	r2, #0
     8bc:	f1ba 0f00 	cmp.w	sl, #0
     8c0:	9202      	str	r2, [sp, #8]
     8c2:	9109      	str	r1, [sp, #36]	; 0x24
     8c4:	9008      	str	r0, [sp, #32]
     8c6:	9206      	str	r2, [sp, #24]
     8c8:	9204      	str	r2, [sp, #16]
     8ca:	d06c      	beq.n	9a6 <_ZN4core3fmt5write17habbe2038e9c9aa1cE+0x106>
     8cc:	f8db 000c 	ldr.w	r0, [fp, #12]
     8d0:	2800      	cmp	r0, #0
     8d2:	f000 808f 	beq.w	9f4 <_ZN4core3fmt5write17habbe2038e9c9aa1cE+0x154>
     8d6:	f06f 011f 	mvn.w	r1, #31
     8da:	f8db 9000 	ldr.w	r9, [fp]
     8de:	eb01 1140 	add.w	r1, r1, r0, lsl #5
     8e2:	0140      	lsls	r0, r0, #5
     8e4:	2400      	movs	r4, #0
     8e6:	f04f 0800 	mov.w	r8, #0
     8ea:	2201      	movs	r2, #1
     8ec:	eb02 1151 	add.w	r1, r2, r1, lsr #5
     8f0:	9100      	str	r1, [sp, #0]
     8f2:	9001      	str	r0, [sp, #4]
     8f4:	eb09 0008 	add.w	r0, r9, r8
     8f8:	6842      	ldr	r2, [r0, #4]
     8fa:	b142      	cbz	r2, 90e <_ZN4core3fmt5write17habbe2038e9c9aa1cE+0x6e>
     8fc:	e9dd 0308 	ldrd	r0, r3, [sp, #32]
     900:	f859 1008 	ldr.w	r1, [r9, r8]
     904:	68db      	ldr	r3, [r3, #12]
     906:	4798      	blx	r3
     908:	2800      	cmp	r0, #0
     90a:	f040 8084 	bne.w	a16 <_ZN4core3fmt5write17habbe2038e9c9aa1cE+0x176>
     90e:	eb0a 0088 	add.w	r0, sl, r8, lsl #2
     912:	f8db 1010 	ldr.w	r1, [fp, #16]
     916:	e9d0 5601 	ldrd	r5, r6, [r0, #4]
     91a:	e9d0 2305 	ldrd	r2, r3, [r0, #20]
     91e:	e9cd 6502 	strd	r6, r5, [sp, #8]
     922:	7f06      	ldrb	r6, [r0, #28]
     924:	f88d 6028 	strb.w	r6, [sp, #40]	; 0x28
     928:	b17a      	cbz	r2, 94a <_ZN4core3fmt5write17habbe2038e9c9aa1cE+0xaa>
     92a:	2a01      	cmp	r2, #1
     92c:	d108      	bne.n	940 <_ZN4core3fmt5write17habbe2038e9c9aa1cE+0xa0>
     92e:	eb01 02c3 	add.w	r2, r1, r3, lsl #3
     932:	f240 6683 	movw	r6, #1667	; 0x683
     936:	f2c0 0600 	movt	r6, #0
     93a:	6852      	ldr	r2, [r2, #4]
     93c:	42b2      	cmp	r2, r6
     93e:	d001      	beq.n	944 <_ZN4core3fmt5write17habbe2038e9c9aa1cE+0xa4>
     940:	2500      	movs	r5, #0
     942:	e003      	b.n	94c <_ZN4core3fmt5write17habbe2038e9c9aa1cE+0xac>
     944:	f851 2033 	ldr.w	r2, [r1, r3, lsl #3]
     948:	6813      	ldr	r3, [r2, #0]
     94a:	2501      	movs	r5, #1
     94c:	eb0a 0204 	add.w	r2, sl, r4
     950:	e9cd 5304 	strd	r5, r3, [sp, #16]
     954:	68c3      	ldr	r3, [r0, #12]
     956:	6910      	ldr	r0, [r2, #16]
     958:	b17b      	cbz	r3, 97a <_ZN4core3fmt5write17habbe2038e9c9aa1cE+0xda>
     95a:	2b01      	cmp	r3, #1
     95c:	d108      	bne.n	970 <_ZN4core3fmt5write17habbe2038e9c9aa1cE+0xd0>
     95e:	eb01 03c0 	add.w	r3, r1, r0, lsl #3
     962:	f240 6683 	movw	r6, #1667	; 0x683
     966:	f2c0 0600 	movt	r6, #0
     96a:	685b      	ldr	r3, [r3, #4]
     96c:	42b3      	cmp	r3, r6
     96e:	d001      	beq.n	974 <_ZN4core3fmt5write17habbe2038e9c9aa1cE+0xd4>
     970:	2300      	movs	r3, #0
     972:	e003      	b.n	97c <_ZN4core3fmt5write17habbe2038e9c9aa1cE+0xdc>
     974:	f851 0030 	ldr.w	r0, [r1, r0, lsl #3]
     978:	6800      	ldr	r0, [r0, #0]
     97a:	2301      	movs	r3, #1
     97c:	6812      	ldr	r2, [r2, #0]
     97e:	9007      	str	r0, [sp, #28]
     980:	f851 0032 	ldr.w	r0, [r1, r2, lsl #3]
     984:	eb01 01c2 	add.w	r1, r1, r2, lsl #3
     988:	684a      	ldr	r2, [r1, #4]
     98a:	a902      	add	r1, sp, #8
     98c:	9306      	str	r3, [sp, #24]
     98e:	4790      	blx	r2
     990:	2800      	cmp	r0, #0
     992:	d140      	bne.n	a16 <_ZN4core3fmt5write17habbe2038e9c9aa1cE+0x176>
     994:	9801      	ldr	r0, [sp, #4]
     996:	3420      	adds	r4, #32
     998:	f108 0808 	add.w	r8, r8, #8
     99c:	42a0      	cmp	r0, r4
     99e:	d1a9      	bne.n	8f4 <_ZN4core3fmt5write17habbe2038e9c9aa1cE+0x54>
     9a0:	f8dd 9000 	ldr.w	r9, [sp]
     9a4:	e028      	b.n	9f8 <_ZN4core3fmt5write17habbe2038e9c9aa1cE+0x158>
     9a6:	f8db 0014 	ldr.w	r0, [fp, #20]
     9aa:	b318      	cbz	r0, 9f4 <_ZN4core3fmt5write17habbe2038e9c9aa1cE+0x154>
     9ac:	f06f 0107 	mvn.w	r1, #7
     9b0:	eb01 00c0 	add.w	r0, r1, r0, lsl #3
     9b4:	f8db 2000 	ldr.w	r2, [fp]
     9b8:	2101      	movs	r1, #1
     9ba:	f8db 3010 	ldr.w	r3, [fp, #16]
     9be:	eb01 05d0 	add.w	r5, r1, r0, lsr #3
     9c2:	1d16      	adds	r6, r2, #4
     9c4:	f10d 0808 	add.w	r8, sp, #8
     9c8:	1d1c      	adds	r4, r3, #4
     9ca:	46a9      	mov	r9, r5
     9cc:	6832      	ldr	r2, [r6, #0]
     9ce:	b132      	cbz	r2, 9de <_ZN4core3fmt5write17habbe2038e9c9aa1cE+0x13e>
     9d0:	e9dd 0308 	ldrd	r0, r3, [sp, #32]
     9d4:	f856 1c04 	ldr.w	r1, [r6, #-4]
     9d8:	68db      	ldr	r3, [r3, #12]
     9da:	4798      	blx	r3
     9dc:	b9d8      	cbnz	r0, a16 <_ZN4core3fmt5write17habbe2038e9c9aa1cE+0x176>
     9de:	f854 0c04 	ldr.w	r0, [r4, #-4]
     9e2:	4641      	mov	r1, r8
     9e4:	6822      	ldr	r2, [r4, #0]
     9e6:	4790      	blx	r2
     9e8:	b9a8      	cbnz	r0, a16 <_ZN4core3fmt5write17habbe2038e9c9aa1cE+0x176>
     9ea:	3408      	adds	r4, #8
     9ec:	3608      	adds	r6, #8
     9ee:	3d01      	subs	r5, #1
     9f0:	d1ec      	bne.n	9cc <_ZN4core3fmt5write17habbe2038e9c9aa1cE+0x12c>
     9f2:	e001      	b.n	9f8 <_ZN4core3fmt5write17habbe2038e9c9aa1cE+0x158>
     9f4:	f04f 0900 	mov.w	r9, #0
     9f8:	e9db 0100 	ldrd	r0, r1, [fp]
     9fc:	2200      	movs	r2, #0
     9fe:	4589      	cmp	r9, r1
     a00:	bf38      	it	cc
     a02:	eb00 02c9 	addcc.w	r2, r0, r9, lsl #3
     a06:	d208      	bcs.n	a1a <_ZN4core3fmt5write17habbe2038e9c9aa1cE+0x17a>
     a08:	e9dd 0308 	ldrd	r0, r3, [sp, #32]
     a0c:	e9d2 1200 	ldrd	r1, r2, [r2]
     a10:	68db      	ldr	r3, [r3, #12]
     a12:	4798      	blx	r3
     a14:	b108      	cbz	r0, a1a <_ZN4core3fmt5write17habbe2038e9c9aa1cE+0x17a>
     a16:	2001      	movs	r0, #1
     a18:	e000      	b.n	a1c <_ZN4core3fmt5write17habbe2038e9c9aa1cE+0x17c>
     a1a:	2000      	movs	r0, #0
     a1c:	b00b      	add	sp, #44	; 0x2c
     a1e:	e8bd 0f00 	ldmia.w	sp!, {r8, r9, sl, fp}
     a22:	bdf0      	pop	{r4, r5, r6, r7, pc}

00000a24 <_ZN68_$LT$core..fmt..builders..PadAdapter$u20$as$u20$core..fmt..Write$GT$9write_str17hcad994d5083289acE>:
     a24:	b5f0      	push	{r4, r5, r6, r7, lr}
     a26:	af03      	add	r7, sp, #12
     a28:	e92d 0f00 	stmdb	sp!, {r8, r9, sl, fp}
     a2c:	b083      	sub	sp, #12
     a2e:	2a00      	cmp	r2, #0
     a30:	f000 810d 	beq.w	c4e <_ZN68_$LT$core..fmt..builders..PadAdapter$u20$as$u20$core..fmt..Write$GT$9write_str17hcad994d5083289acE+0x22a>
     a34:	f8d0 b008 	ldr.w	fp, [r0, #8]
     a38:	4688      	mov	r8, r1
     a3a:	6801      	ldr	r1, [r0, #0]
     a3c:	4691      	mov	r9, r2
     a3e:	9102      	str	r1, [sp, #8]
     a40:	6841      	ldr	r1, [r0, #4]
     a42:	9101      	str	r1, [sp, #4]
     a44:	e004      	b.n	a50 <_ZN68_$LT$core..fmt..builders..PadAdapter$u20$as$u20$core..fmt..Write$GT$9write_str17hcad994d5083289acE+0x2c>
     a46:	44d0      	add	r8, sl
     a48:	ebb9 090a 	subs.w	r9, r9, sl
     a4c:	f000 80ff 	beq.w	c4e <_ZN68_$LT$core..fmt..builders..PadAdapter$u20$as$u20$core..fmt..Write$GT$9write_str17hcad994d5083289acE+0x22a>
     a50:	f89b 0000 	ldrb.w	r0, [fp]
     a54:	b158      	cbz	r0, a6e <_ZN68_$LT$core..fmt..builders..PadAdapter$u20$as$u20$core..fmt..Write$GT$9write_str17hcad994d5083289acE+0x4a>
     a56:	9801      	ldr	r0, [sp, #4]
     a58:	f641 7110 	movw	r1, #7952	; 0x1f10
     a5c:	f2c0 0100 	movt	r1, #0
     a60:	2204      	movs	r2, #4
     a62:	68c3      	ldr	r3, [r0, #12]
     a64:	9802      	ldr	r0, [sp, #8]
     a66:	4798      	blx	r3
     a68:	2800      	cmp	r0, #0
     a6a:	f040 80ee 	bne.w	c4a <_ZN68_$LT$core..fmt..builders..PadAdapter$u20$as$u20$core..fmt..Write$GT$9write_str17hcad994d5083289acE+0x226>
     a6e:	f04f 0a00 	mov.w	sl, #0
     a72:	4649      	mov	r1, r9
     a74:	e008      	b.n	a88 <_ZN68_$LT$core..fmt..builders..PadAdapter$u20$as$u20$core..fmt..Write$GT$9write_str17hcad994d5083289acE+0x64>
     a76:	ebb9 010a 	subs.w	r1, r9, sl
     a7a:	f04f 0000 	mov.w	r0, #0
     a7e:	bf38      	it	cc
     a80:	4601      	movcc	r1, r0
     a82:	45ca      	cmp	sl, r9
     a84:	f200 80bf 	bhi.w	c06 <_ZN68_$LT$core..fmt..builders..PadAdapter$u20$as$u20$core..fmt..Write$GT$9write_str17hcad994d5083289acE+0x1e2>
     a88:	eb08 020a 	add.w	r2, r8, sl
     a8c:	2908      	cmp	r1, #8
     a8e:	d207      	bcs.n	aa0 <_ZN68_$LT$core..fmt..builders..PadAdapter$u20$as$u20$core..fmt..Write$GT$9write_str17hcad994d5083289acE+0x7c>
     a90:	2900      	cmp	r1, #0
     a92:	f000 80b7 	beq.w	c04 <_ZN68_$LT$core..fmt..builders..PadAdapter$u20$as$u20$core..fmt..Write$GT$9write_str17hcad994d5083289acE+0x1e0>
     a96:	7810      	ldrb	r0, [r2, #0]
     a98:	280a      	cmp	r0, #10
     a9a:	d12b      	bne.n	af4 <_ZN68_$LT$core..fmt..builders..PadAdapter$u20$as$u20$core..fmt..Write$GT$9write_str17hcad994d5083289acE+0xd0>
     a9c:	2300      	movs	r3, #0
     a9e:	e0a1      	b.n	be4 <_ZN68_$LT$core..fmt..builders..PadAdapter$u20$as$u20$core..fmt..Write$GT$9write_str17hcad994d5083289acE+0x1c0>
     aa0:	1cd0      	adds	r0, r2, #3
     aa2:	f020 0003 	bic.w	r0, r0, #3
     aa6:	1a80      	subs	r0, r0, r2
     aa8:	d02c      	beq.n	b04 <_ZN68_$LT$core..fmt..builders..PadAdapter$u20$as$u20$core..fmt..Write$GT$9write_str17hcad994d5083289acE+0xe0>
     aaa:	4288      	cmp	r0, r1
     aac:	bf88      	it	hi
     aae:	4608      	movhi	r0, r1
     ab0:	1815      	adds	r5, r2, r0
     ab2:	2300      	movs	r3, #0
     ab4:	5cd6      	ldrb	r6, [r2, r3]
     ab6:	2e0a      	cmp	r6, #10
     ab8:	f000 8094 	beq.w	be4 <_ZN68_$LT$core..fmt..builders..PadAdapter$u20$as$u20$core..fmt..Write$GT$9write_str17hcad994d5083289acE+0x1c0>
     abc:	18d6      	adds	r6, r2, r3
     abe:	3601      	adds	r6, #1
     ac0:	42ae      	cmp	r6, r5
     ac2:	d012      	beq.n	aea <_ZN68_$LT$core..fmt..builders..PadAdapter$u20$as$u20$core..fmt..Write$GT$9write_str17hcad994d5083289acE+0xc6>
     ac4:	7834      	ldrb	r4, [r6, #0]
     ac6:	2c0a      	cmp	r4, #10
     ac8:	d06c      	beq.n	ba4 <_ZN68_$LT$core..fmt..builders..PadAdapter$u20$as$u20$core..fmt..Write$GT$9write_str17hcad994d5083289acE+0x180>
     aca:	3601      	adds	r6, #1
     acc:	42ae      	cmp	r6, r5
     ace:	d00c      	beq.n	aea <_ZN68_$LT$core..fmt..builders..PadAdapter$u20$as$u20$core..fmt..Write$GT$9write_str17hcad994d5083289acE+0xc6>
     ad0:	7834      	ldrb	r4, [r6, #0]
     ad2:	2c0a      	cmp	r4, #10
     ad4:	d06b      	beq.n	bae <_ZN68_$LT$core..fmt..builders..PadAdapter$u20$as$u20$core..fmt..Write$GT$9write_str17hcad994d5083289acE+0x18a>
     ad6:	3601      	adds	r6, #1
     ad8:	42ae      	cmp	r6, r5
     ada:	d006      	beq.n	aea <_ZN68_$LT$core..fmt..builders..PadAdapter$u20$as$u20$core..fmt..Write$GT$9write_str17hcad994d5083289acE+0xc6>
     adc:	7834      	ldrb	r4, [r6, #0]
     ade:	2c0a      	cmp	r4, #10
     ae0:	d06a      	beq.n	bb8 <_ZN68_$LT$core..fmt..builders..PadAdapter$u20$as$u20$core..fmt..Write$GT$9write_str17hcad994d5083289acE+0x194>
     ae2:	3601      	adds	r6, #1
     ae4:	3304      	adds	r3, #4
     ae6:	42ae      	cmp	r6, r5
     ae8:	d1e4      	bne.n	ab4 <_ZN68_$LT$core..fmt..builders..PadAdapter$u20$as$u20$core..fmt..Write$GT$9write_str17hcad994d5083289acE+0x90>
     aea:	f1a1 0308 	sub.w	r3, r1, #8
     aee:	4298      	cmp	r0, r3
     af0:	d90b      	bls.n	b0a <_ZN68_$LT$core..fmt..builders..PadAdapter$u20$as$u20$core..fmt..Write$GT$9write_str17hcad994d5083289acE+0xe6>
     af2:	e023      	b.n	b3c <_ZN68_$LT$core..fmt..builders..PadAdapter$u20$as$u20$core..fmt..Write$GT$9write_str17hcad994d5083289acE+0x118>
     af4:	2901      	cmp	r1, #1
     af6:	f000 8085 	beq.w	c04 <_ZN68_$LT$core..fmt..builders..PadAdapter$u20$as$u20$core..fmt..Write$GT$9write_str17hcad994d5083289acE+0x1e0>
     afa:	7850      	ldrb	r0, [r2, #1]
     afc:	280a      	cmp	r0, #10
     afe:	d140      	bne.n	b82 <_ZN68_$LT$core..fmt..builders..PadAdapter$u20$as$u20$core..fmt..Write$GT$9write_str17hcad994d5083289acE+0x15e>
     b00:	2301      	movs	r3, #1
     b02:	e06f      	b.n	be4 <_ZN68_$LT$core..fmt..builders..PadAdapter$u20$as$u20$core..fmt..Write$GT$9write_str17hcad994d5083289acE+0x1c0>
     b04:	f1a1 0308 	sub.w	r3, r1, #8
     b08:	2000      	movs	r0, #0
     b0a:	5816      	ldr	r6, [r2, r0]
     b0c:	1815      	adds	r5, r2, r0
     b0e:	686d      	ldr	r5, [r5, #4]
     b10:	f086 340a 	eor.w	r4, r6, #168430090	; 0xa0a0a0a
     b14:	f1a4 3401 	sub.w	r4, r4, #16843009	; 0x1010101
     b18:	ea24 0606 	bic.w	r6, r4, r6
     b1c:	f085 340a 	eor.w	r4, r5, #168430090	; 0xa0a0a0a
     b20:	f1a4 3401 	sub.w	r4, r4, #16843009	; 0x1010101
     b24:	ea24 0505 	bic.w	r5, r4, r5
     b28:	432e      	orrs	r6, r5
     b2a:	f016 3f80 	tst.w	r6, #2155905152	; 0x80808080
     b2e:	d102      	bne.n	b36 <_ZN68_$LT$core..fmt..builders..PadAdapter$u20$as$u20$core..fmt..Write$GT$9write_str17hcad994d5083289acE+0x112>
     b30:	3008      	adds	r0, #8
     b32:	4298      	cmp	r0, r3
     b34:	d9e9      	bls.n	b0a <_ZN68_$LT$core..fmt..builders..PadAdapter$u20$as$u20$core..fmt..Write$GT$9write_str17hcad994d5083289acE+0xe6>
     b36:	4288      	cmp	r0, r1
     b38:	f200 808e 	bhi.w	c58 <_ZN68_$LT$core..fmt..builders..PadAdapter$u20$as$u20$core..fmt..Write$GT$9write_str17hcad994d5083289acE+0x234>
     b3c:	4288      	cmp	r0, r1
     b3e:	d061      	beq.n	c04 <_ZN68_$LT$core..fmt..builders..PadAdapter$u20$as$u20$core..fmt..Write$GT$9write_str17hcad994d5083289acE+0x1e0>
     b40:	440a      	add	r2, r1
     b42:	eb00 010a 	add.w	r1, r0, sl
     b46:	eb08 0301 	add.w	r3, r8, r1
     b4a:	2100      	movs	r1, #0
     b4c:	5c5e      	ldrb	r6, [r3, r1]
     b4e:	2e0a      	cmp	r6, #10
     b50:	d026      	beq.n	ba0 <_ZN68_$LT$core..fmt..builders..PadAdapter$u20$as$u20$core..fmt..Write$GT$9write_str17hcad994d5083289acE+0x17c>
     b52:	185e      	adds	r6, r3, r1
     b54:	3601      	adds	r6, #1
     b56:	4296      	cmp	r6, r2
     b58:	d054      	beq.n	c04 <_ZN68_$LT$core..fmt..builders..PadAdapter$u20$as$u20$core..fmt..Write$GT$9write_str17hcad994d5083289acE+0x1e0>
     b5a:	7835      	ldrb	r5, [r6, #0]
     b5c:	2d0a      	cmp	r5, #10
     b5e:	d01e      	beq.n	b9e <_ZN68_$LT$core..fmt..builders..PadAdapter$u20$as$u20$core..fmt..Write$GT$9write_str17hcad994d5083289acE+0x17a>
     b60:	3601      	adds	r6, #1
     b62:	4296      	cmp	r6, r2
     b64:	d04e      	beq.n	c04 <_ZN68_$LT$core..fmt..builders..PadAdapter$u20$as$u20$core..fmt..Write$GT$9write_str17hcad994d5083289acE+0x1e0>
     b66:	7835      	ldrb	r5, [r6, #0]
     b68:	2d0a      	cmp	r5, #10
     b6a:	d01d      	beq.n	ba8 <_ZN68_$LT$core..fmt..builders..PadAdapter$u20$as$u20$core..fmt..Write$GT$9write_str17hcad994d5083289acE+0x184>
     b6c:	3601      	adds	r6, #1
     b6e:	4296      	cmp	r6, r2
     b70:	d048      	beq.n	c04 <_ZN68_$LT$core..fmt..builders..PadAdapter$u20$as$u20$core..fmt..Write$GT$9write_str17hcad994d5083289acE+0x1e0>
     b72:	7835      	ldrb	r5, [r6, #0]
     b74:	2d0a      	cmp	r5, #10
     b76:	d01c      	beq.n	bb2 <_ZN68_$LT$core..fmt..builders..PadAdapter$u20$as$u20$core..fmt..Write$GT$9write_str17hcad994d5083289acE+0x18e>
     b78:	3601      	adds	r6, #1
     b7a:	3104      	adds	r1, #4
     b7c:	4296      	cmp	r6, r2
     b7e:	d1e5      	bne.n	b4c <_ZN68_$LT$core..fmt..builders..PadAdapter$u20$as$u20$core..fmt..Write$GT$9write_str17hcad994d5083289acE+0x128>
     b80:	e040      	b.n	c04 <_ZN68_$LT$core..fmt..builders..PadAdapter$u20$as$u20$core..fmt..Write$GT$9write_str17hcad994d5083289acE+0x1e0>
     b82:	2902      	cmp	r1, #2
     b84:	d03e      	beq.n	c04 <_ZN68_$LT$core..fmt..builders..PadAdapter$u20$as$u20$core..fmt..Write$GT$9write_str17hcad994d5083289acE+0x1e0>
     b86:	7890      	ldrb	r0, [r2, #2]
     b88:	280a      	cmp	r0, #10
     b8a:	d101      	bne.n	b90 <_ZN68_$LT$core..fmt..builders..PadAdapter$u20$as$u20$core..fmt..Write$GT$9write_str17hcad994d5083289acE+0x16c>
     b8c:	2302      	movs	r3, #2
     b8e:	e029      	b.n	be4 <_ZN68_$LT$core..fmt..builders..PadAdapter$u20$as$u20$core..fmt..Write$GT$9write_str17hcad994d5083289acE+0x1c0>
     b90:	2903      	cmp	r1, #3
     b92:	d037      	beq.n	c04 <_ZN68_$LT$core..fmt..builders..PadAdapter$u20$as$u20$core..fmt..Write$GT$9write_str17hcad994d5083289acE+0x1e0>
     b94:	78d0      	ldrb	r0, [r2, #3]
     b96:	280a      	cmp	r0, #10
     b98:	d110      	bne.n	bbc <_ZN68_$LT$core..fmt..builders..PadAdapter$u20$as$u20$core..fmt..Write$GT$9write_str17hcad994d5083289acE+0x198>
     b9a:	2303      	movs	r3, #3
     b9c:	e022      	b.n	be4 <_ZN68_$LT$core..fmt..builders..PadAdapter$u20$as$u20$core..fmt..Write$GT$9write_str17hcad994d5083289acE+0x1c0>
     b9e:	3101      	adds	r1, #1
     ba0:	180b      	adds	r3, r1, r0
     ba2:	e01f      	b.n	be4 <_ZN68_$LT$core..fmt..builders..PadAdapter$u20$as$u20$core..fmt..Write$GT$9write_str17hcad994d5083289acE+0x1c0>
     ba4:	3301      	adds	r3, #1
     ba6:	e01d      	b.n	be4 <_ZN68_$LT$core..fmt..builders..PadAdapter$u20$as$u20$core..fmt..Write$GT$9write_str17hcad994d5083289acE+0x1c0>
     ba8:	3102      	adds	r1, #2
     baa:	180b      	adds	r3, r1, r0
     bac:	e01a      	b.n	be4 <_ZN68_$LT$core..fmt..builders..PadAdapter$u20$as$u20$core..fmt..Write$GT$9write_str17hcad994d5083289acE+0x1c0>
     bae:	3302      	adds	r3, #2
     bb0:	e018      	b.n	be4 <_ZN68_$LT$core..fmt..builders..PadAdapter$u20$as$u20$core..fmt..Write$GT$9write_str17hcad994d5083289acE+0x1c0>
     bb2:	3103      	adds	r1, #3
     bb4:	180b      	adds	r3, r1, r0
     bb6:	e015      	b.n	be4 <_ZN68_$LT$core..fmt..builders..PadAdapter$u20$as$u20$core..fmt..Write$GT$9write_str17hcad994d5083289acE+0x1c0>
     bb8:	3303      	adds	r3, #3
     bba:	e013      	b.n	be4 <_ZN68_$LT$core..fmt..builders..PadAdapter$u20$as$u20$core..fmt..Write$GT$9write_str17hcad994d5083289acE+0x1c0>
     bbc:	2904      	cmp	r1, #4
     bbe:	d021      	beq.n	c04 <_ZN68_$LT$core..fmt..builders..PadAdapter$u20$as$u20$core..fmt..Write$GT$9write_str17hcad994d5083289acE+0x1e0>
     bc0:	7910      	ldrb	r0, [r2, #4]
     bc2:	280a      	cmp	r0, #10
     bc4:	d101      	bne.n	bca <_ZN68_$LT$core..fmt..builders..PadAdapter$u20$as$u20$core..fmt..Write$GT$9write_str17hcad994d5083289acE+0x1a6>
     bc6:	2304      	movs	r3, #4
     bc8:	e00c      	b.n	be4 <_ZN68_$LT$core..fmt..builders..PadAdapter$u20$as$u20$core..fmt..Write$GT$9write_str17hcad994d5083289acE+0x1c0>
     bca:	2905      	cmp	r1, #5
     bcc:	d01a      	beq.n	c04 <_ZN68_$LT$core..fmt..builders..PadAdapter$u20$as$u20$core..fmt..Write$GT$9write_str17hcad994d5083289acE+0x1e0>
     bce:	7950      	ldrb	r0, [r2, #5]
     bd0:	280a      	cmp	r0, #10
     bd2:	d101      	bne.n	bd8 <_ZN68_$LT$core..fmt..builders..PadAdapter$u20$as$u20$core..fmt..Write$GT$9write_str17hcad994d5083289acE+0x1b4>
     bd4:	2305      	movs	r3, #5
     bd6:	e005      	b.n	be4 <_ZN68_$LT$core..fmt..builders..PadAdapter$u20$as$u20$core..fmt..Write$GT$9write_str17hcad994d5083289acE+0x1c0>
     bd8:	2906      	cmp	r1, #6
     bda:	d013      	beq.n	c04 <_ZN68_$LT$core..fmt..builders..PadAdapter$u20$as$u20$core..fmt..Write$GT$9write_str17hcad994d5083289acE+0x1e0>
     bdc:	7990      	ldrb	r0, [r2, #6]
     bde:	280a      	cmp	r0, #10
     be0:	d110      	bne.n	c04 <_ZN68_$LT$core..fmt..builders..PadAdapter$u20$as$u20$core..fmt..Write$GT$9write_str17hcad994d5083289acE+0x1e0>
     be2:	2306      	movs	r3, #6
     be4:	eb03 000a 	add.w	r0, r3, sl
     be8:	f110 0a01 	adds.w	sl, r0, #1
     bec:	f4bf af43 	bcs.w	a76 <_ZN68_$LT$core..fmt..builders..PadAdapter$u20$as$u20$core..fmt..Write$GT$9write_str17hcad994d5083289acE+0x52>
     bf0:	45ca      	cmp	sl, r9
     bf2:	f63f af40 	bhi.w	a76 <_ZN68_$LT$core..fmt..builders..PadAdapter$u20$as$u20$core..fmt..Write$GT$9write_str17hcad994d5083289acE+0x52>
     bf6:	f818 0000 	ldrb.w	r0, [r8, r0]
     bfa:	280a      	cmp	r0, #10
     bfc:	f47f af3b 	bne.w	a76 <_ZN68_$LT$core..fmt..builders..PadAdapter$u20$as$u20$core..fmt..Write$GT$9write_str17hcad994d5083289acE+0x52>
     c00:	2001      	movs	r0, #1
     c02:	e001      	b.n	c08 <_ZN68_$LT$core..fmt..builders..PadAdapter$u20$as$u20$core..fmt..Write$GT$9write_str17hcad994d5083289acE+0x1e4>
     c04:	2000      	movs	r0, #0
     c06:	46ca      	mov	sl, r9
     c08:	45d1      	cmp	r9, sl
     c0a:	f88b 0000 	strb.w	r0, [fp]
     c0e:	d912      	bls.n	c36 <_ZN68_$LT$core..fmt..builders..PadAdapter$u20$as$u20$core..fmt..Write$GT$9write_str17hcad994d5083289acE+0x212>
     c10:	f918 000a 	ldrsb.w	r0, [r8, sl]
     c14:	f110 0f41 	cmn.w	r0, #65	; 0x41
     c18:	dd21      	ble.n	c5e <_ZN68_$LT$core..fmt..builders..PadAdapter$u20$as$u20$core..fmt..Write$GT$9write_str17hcad994d5083289acE+0x23a>
     c1a:	9801      	ldr	r0, [sp, #4]
     c1c:	4641      	mov	r1, r8
     c1e:	4652      	mov	r2, sl
     c20:	68c3      	ldr	r3, [r0, #12]
     c22:	9802      	ldr	r0, [sp, #8]
     c24:	4798      	blx	r3
     c26:	b980      	cbnz	r0, c4a <_ZN68_$LT$core..fmt..builders..PadAdapter$u20$as$u20$core..fmt..Write$GT$9write_str17hcad994d5083289acE+0x226>
     c28:	f918 000a 	ldrsb.w	r0, [r8, sl]
     c2c:	f110 0f41 	cmn.w	r0, #65	; 0x41
     c30:	f73f af09 	bgt.w	a46 <_ZN68_$LT$core..fmt..builders..PadAdapter$u20$as$u20$core..fmt..Write$GT$9write_str17hcad994d5083289acE+0x22>
     c34:	e01a      	b.n	c6c <_ZN68_$LT$core..fmt..builders..PadAdapter$u20$as$u20$core..fmt..Write$GT$9write_str17hcad994d5083289acE+0x248>
     c36:	d112      	bne.n	c5e <_ZN68_$LT$core..fmt..builders..PadAdapter$u20$as$u20$core..fmt..Write$GT$9write_str17hcad994d5083289acE+0x23a>
     c38:	9801      	ldr	r0, [sp, #4]
     c3a:	4641      	mov	r1, r8
     c3c:	464a      	mov	r2, r9
     c3e:	68c3      	ldr	r3, [r0, #12]
     c40:	9802      	ldr	r0, [sp, #8]
     c42:	4798      	blx	r3
     c44:	2800      	cmp	r0, #0
     c46:	f43f aefe 	beq.w	a46 <_ZN68_$LT$core..fmt..builders..PadAdapter$u20$as$u20$core..fmt..Write$GT$9write_str17hcad994d5083289acE+0x22>
     c4a:	2001      	movs	r0, #1
     c4c:	e000      	b.n	c50 <_ZN68_$LT$core..fmt..builders..PadAdapter$u20$as$u20$core..fmt..Write$GT$9write_str17hcad994d5083289acE+0x22c>
     c4e:	2000      	movs	r0, #0
     c50:	b003      	add	sp, #12
     c52:	e8bd 0f00 	ldmia.w	sp!, {r8, r9, sl, fp}
     c56:	bdf0      	pop	{r4, r5, r6, r7, pc}
     c58:	f7ff fe18 	bl	88c <_ZN4core5slice5index26slice_start_index_len_fail17h4ce40613b75cbd5eE>
     c5c:	defe      	udf	#254	; 0xfe
     c5e:	4640      	mov	r0, r8
     c60:	4649      	mov	r1, r9
     c62:	2200      	movs	r2, #0
     c64:	4653      	mov	r3, sl
     c66:	f000 f808 	bl	c7a <_ZN4core3str16slice_error_fail17ha07c7d3fb883eb1aE>
     c6a:	defe      	udf	#254	; 0xfe
     c6c:	4640      	mov	r0, r8
     c6e:	4649      	mov	r1, r9
     c70:	4652      	mov	r2, sl
     c72:	464b      	mov	r3, r9
     c74:	f000 f801 	bl	c7a <_ZN4core3str16slice_error_fail17ha07c7d3fb883eb1aE>
     c78:	defe      	udf	#254	; 0xfe

00000c7a <_ZN4core3str16slice_error_fail17ha07c7d3fb883eb1aE>:
     c7a:	b580      	push	{r7, lr}
     c7c:	466f      	mov	r7, sp
     c7e:	f5b1 7f80 	cmp.w	r1, #256	; 0x100
     c82:	f240 8123 	bls.w	ecc <_ZN4core3str16slice_error_fail17ha07c7d3fb883eb1aE+0x252>
     c86:	f04f 0c00 	mov.w	ip, #0
     c8a:	eb00 0e0c 	add.w	lr, r0, ip
     c8e:	f99e 4100 	ldrsb.w	r4, [lr, #256]	; 0x100
     c92:	f114 0f40 	cmn.w	r4, #64	; 0x40
     c96:	f280 80b3 	bge.w	e00 <_ZN4core3str16slice_error_fail17ha07c7d3fb883eb1aE+0x186>
     c9a:	f99e 40ff 	ldrsb.w	r4, [lr, #255]	; 0xff
     c9e:	f114 0f41 	cmn.w	r4, #65	; 0x41
     ca2:	f300 80b0 	bgt.w	e06 <_ZN4core3str16slice_error_fail17ha07c7d3fb883eb1aE+0x18c>
     ca6:	f99e 40fe 	ldrsb.w	r4, [lr, #254]	; 0xfe
     caa:	f114 0f41 	cmn.w	r4, #65	; 0x41
     cae:	f300 80ad 	bgt.w	e0c <_ZN4core3str16slice_error_fail17ha07c7d3fb883eb1aE+0x192>
     cb2:	f99e 40fd 	ldrsb.w	r4, [lr, #253]	; 0xfd
     cb6:	f114 0f41 	cmn.w	r4, #65	; 0x41
     cba:	f300 80aa 	bgt.w	e12 <_ZN4core3str16slice_error_fail17ha07c7d3fb883eb1aE+0x198>
     cbe:	f99e 40fc 	ldrsb.w	r4, [lr, #252]	; 0xfc
     cc2:	f114 0f41 	cmn.w	r4, #65	; 0x41
     cc6:	f300 80a7 	bgt.w	e18 <_ZN4core3str16slice_error_fail17ha07c7d3fb883eb1aE+0x19e>
     cca:	f99e 40fb 	ldrsb.w	r4, [lr, #251]	; 0xfb
     cce:	f114 0f41 	cmn.w	r4, #65	; 0x41
     cd2:	f300 80a4 	bgt.w	e1e <_ZN4core3str16slice_error_fail17ha07c7d3fb883eb1aE+0x1a4>
     cd6:	f99e 40fa 	ldrsb.w	r4, [lr, #250]	; 0xfa
     cda:	f114 0f41 	cmn.w	r4, #65	; 0x41
     cde:	f300 80a1 	bgt.w	e24 <_ZN4core3str16slice_error_fail17ha07c7d3fb883eb1aE+0x1aa>
     ce2:	f99e 40f9 	ldrsb.w	r4, [lr, #249]	; 0xf9
     ce6:	f114 0f41 	cmn.w	r4, #65	; 0x41
     cea:	f300 809e 	bgt.w	e2a <_ZN4core3str16slice_error_fail17ha07c7d3fb883eb1aE+0x1b0>
     cee:	f99e 40f8 	ldrsb.w	r4, [lr, #248]	; 0xf8
     cf2:	f114 0f41 	cmn.w	r4, #65	; 0x41
     cf6:	f300 809b 	bgt.w	e30 <_ZN4core3str16slice_error_fail17ha07c7d3fb883eb1aE+0x1b6>
     cfa:	f99e 40f7 	ldrsb.w	r4, [lr, #247]	; 0xf7
     cfe:	f114 0f41 	cmn.w	r4, #65	; 0x41
     d02:	f300 8098 	bgt.w	e36 <_ZN4core3str16slice_error_fail17ha07c7d3fb883eb1aE+0x1bc>
     d06:	f99e 40f6 	ldrsb.w	r4, [lr, #246]	; 0xf6
     d0a:	f114 0f41 	cmn.w	r4, #65	; 0x41
     d0e:	f300 8095 	bgt.w	e3c <_ZN4core3str16slice_error_fail17ha07c7d3fb883eb1aE+0x1c2>
     d12:	f99e 40f5 	ldrsb.w	r4, [lr, #245]	; 0xf5
     d16:	f114 0f41 	cmn.w	r4, #65	; 0x41
     d1a:	f300 8092 	bgt.w	e42 <_ZN4core3str16slice_error_fail17ha07c7d3fb883eb1aE+0x1c8>
     d1e:	f99e 40f4 	ldrsb.w	r4, [lr, #244]	; 0xf4
     d22:	f114 0f41 	cmn.w	r4, #65	; 0x41
     d26:	f300 808f 	bgt.w	e48 <_ZN4core3str16slice_error_fail17ha07c7d3fb883eb1aE+0x1ce>
     d2a:	f99e 40f3 	ldrsb.w	r4, [lr, #243]	; 0xf3
     d2e:	f114 0f41 	cmn.w	r4, #65	; 0x41
     d32:	f300 808c 	bgt.w	e4e <_ZN4core3str16slice_error_fail17ha07c7d3fb883eb1aE+0x1d4>
     d36:	f99e 40f2 	ldrsb.w	r4, [lr, #242]	; 0xf2
     d3a:	f114 0f41 	cmn.w	r4, #65	; 0x41
     d3e:	f300 8089 	bgt.w	e54 <_ZN4core3str16slice_error_fail17ha07c7d3fb883eb1aE+0x1da>
     d42:	f99e 40f1 	ldrsb.w	r4, [lr, #241]	; 0xf1
     d46:	f114 0f41 	cmn.w	r4, #65	; 0x41
     d4a:	f300 8086 	bgt.w	e5a <_ZN4core3str16slice_error_fail17ha07c7d3fb883eb1aE+0x1e0>
     d4e:	f99e 40f0 	ldrsb.w	r4, [lr, #240]	; 0xf0
     d52:	f114 0f41 	cmn.w	r4, #65	; 0x41
     d56:	f300 8083 	bgt.w	e60 <_ZN4core3str16slice_error_fail17ha07c7d3fb883eb1aE+0x1e6>
     d5a:	f99e 40ef 	ldrsb.w	r4, [lr, #239]	; 0xef
     d5e:	f114 0f41 	cmn.w	r4, #65	; 0x41
     d62:	f300 8080 	bgt.w	e66 <_ZN4core3str16slice_error_fail17ha07c7d3fb883eb1aE+0x1ec>
     d66:	f99e 40ee 	ldrsb.w	r4, [lr, #238]	; 0xee
     d6a:	f114 0f41 	cmn.w	r4, #65	; 0x41
     d6e:	dc7d      	bgt.n	e6c <_ZN4core3str16slice_error_fail17ha07c7d3fb883eb1aE+0x1f2>
     d70:	f99e 40ed 	ldrsb.w	r4, [lr, #237]	; 0xed
     d74:	f114 0f41 	cmn.w	r4, #65	; 0x41
     d78:	dc7b      	bgt.n	e72 <_ZN4core3str16slice_error_fail17ha07c7d3fb883eb1aE+0x1f8>
     d7a:	f99e 40ec 	ldrsb.w	r4, [lr, #236]	; 0xec
     d7e:	f114 0f41 	cmn.w	r4, #65	; 0x41
     d82:	dc79      	bgt.n	e78 <_ZN4core3str16slice_error_fail17ha07c7d3fb883eb1aE+0x1fe>
     d84:	f99e 40eb 	ldrsb.w	r4, [lr, #235]	; 0xeb
     d88:	f114 0f41 	cmn.w	r4, #65	; 0x41
     d8c:	dc77      	bgt.n	e7e <_ZN4core3str16slice_error_fail17ha07c7d3fb883eb1aE+0x204>
     d8e:	f99e 40ea 	ldrsb.w	r4, [lr, #234]	; 0xea
     d92:	f114 0f41 	cmn.w	r4, #65	; 0x41
     d96:	dc75      	bgt.n	e84 <_ZN4core3str16slice_error_fail17ha07c7d3fb883eb1aE+0x20a>
     d98:	f99e 40e9 	ldrsb.w	r4, [lr, #233]	; 0xe9
     d9c:	f114 0f41 	cmn.w	r4, #65	; 0x41
     da0:	dc73      	bgt.n	e8a <_ZN4core3str16slice_error_fail17ha07c7d3fb883eb1aE+0x210>
     da2:	f99e 40e8 	ldrsb.w	r4, [lr, #232]	; 0xe8
     da6:	f114 0f41 	cmn.w	r4, #65	; 0x41
     daa:	dc71      	bgt.n	e90 <_ZN4core3str16slice_error_fail17ha07c7d3fb883eb1aE+0x216>
     dac:	f99e 40e7 	ldrsb.w	r4, [lr, #231]	; 0xe7
     db0:	f114 0f41 	cmn.w	r4, #65	; 0x41
     db4:	dc6f      	bgt.n	e96 <_ZN4core3str16slice_error_fail17ha07c7d3fb883eb1aE+0x21c>
     db6:	f99e 40e6 	ldrsb.w	r4, [lr, #230]	; 0xe6
     dba:	f114 0f41 	cmn.w	r4, #65	; 0x41
     dbe:	dc6d      	bgt.n	e9c <_ZN4core3str16slice_error_fail17ha07c7d3fb883eb1aE+0x222>
     dc0:	f99e 40e5 	ldrsb.w	r4, [lr, #229]	; 0xe5
     dc4:	f114 0f41 	cmn.w	r4, #65	; 0x41
     dc8:	dc6b      	bgt.n	ea2 <_ZN4core3str16slice_error_fail17ha07c7d3fb883eb1aE+0x228>
     dca:	f99e 40e4 	ldrsb.w	r4, [lr, #228]	; 0xe4
     dce:	f114 0f41 	cmn.w	r4, #65	; 0x41
     dd2:	dc69      	bgt.n	ea8 <_ZN4core3str16slice_error_fail17ha07c7d3fb883eb1aE+0x22e>
     dd4:	f99e 40e3 	ldrsb.w	r4, [lr, #227]	; 0xe3
     dd8:	f114 0f41 	cmn.w	r4, #65	; 0x41
     ddc:	dc67      	bgt.n	eae <_ZN4core3str16slice_error_fail17ha07c7d3fb883eb1aE+0x234>
     dde:	f99e 40e2 	ldrsb.w	r4, [lr, #226]	; 0xe2
     de2:	f114 0f41 	cmn.w	r4, #65	; 0x41
     de6:	dc65      	bgt.n	eb4 <_ZN4core3str16slice_error_fail17ha07c7d3fb883eb1aE+0x23a>
     de8:	f99e 40e1 	ldrsb.w	r4, [lr, #225]	; 0xe1
     dec:	f114 0f41 	cmn.w	r4, #65	; 0x41
     df0:	dc63      	bgt.n	eba <_ZN4core3str16slice_error_fail17ha07c7d3fb883eb1aE+0x240>
     df2:	f1ac 0c20 	sub.w	ip, ip, #32
     df6:	f51c 7f80 	cmn.w	ip, #256	; 0x100
     dfa:	f47f af46 	bne.w	c8a <_ZN4core3str16slice_error_fail17ha07c7d3fb883eb1aE+0x10>
     dfe:	e065      	b.n	ecc <_ZN4core3str16slice_error_fail17ha07c7d3fb883eb1aE+0x252>
     e00:	f50c 7c80 	add.w	ip, ip, #256	; 0x100
     e04:	e05b      	b.n	ebe <_ZN4core3str16slice_error_fail17ha07c7d3fb883eb1aE+0x244>
     e06:	f10c 0cff 	add.w	ip, ip, #255	; 0xff
     e0a:	e058      	b.n	ebe <_ZN4core3str16slice_error_fail17ha07c7d3fb883eb1aE+0x244>
     e0c:	f10c 0cfe 	add.w	ip, ip, #254	; 0xfe
     e10:	e055      	b.n	ebe <_ZN4core3str16slice_error_fail17ha07c7d3fb883eb1aE+0x244>
     e12:	f10c 0cfd 	add.w	ip, ip, #253	; 0xfd
     e16:	e052      	b.n	ebe <_ZN4core3str16slice_error_fail17ha07c7d3fb883eb1aE+0x244>
     e18:	f10c 0cfc 	add.w	ip, ip, #252	; 0xfc
     e1c:	e04f      	b.n	ebe <_ZN4core3str16slice_error_fail17ha07c7d3fb883eb1aE+0x244>
     e1e:	f10c 0cfb 	add.w	ip, ip, #251	; 0xfb
     e22:	e04c      	b.n	ebe <_ZN4core3str16slice_error_fail17ha07c7d3fb883eb1aE+0x244>
     e24:	f10c 0cfa 	add.w	ip, ip, #250	; 0xfa
     e28:	e049      	b.n	ebe <_ZN4core3str16slice_error_fail17ha07c7d3fb883eb1aE+0x244>
     e2a:	f10c 0cf9 	add.w	ip, ip, #249	; 0xf9
     e2e:	e046      	b.n	ebe <_ZN4core3str16slice_error_fail17ha07c7d3fb883eb1aE+0x244>
     e30:	f10c 0cf8 	add.w	ip, ip, #248	; 0xf8
     e34:	e043      	b.n	ebe <_ZN4core3str16slice_error_fail17ha07c7d3fb883eb1aE+0x244>
     e36:	f10c 0cf7 	add.w	ip, ip, #247	; 0xf7
     e3a:	e040      	b.n	ebe <_ZN4core3str16slice_error_fail17ha07c7d3fb883eb1aE+0x244>
     e3c:	f10c 0cf6 	add.w	ip, ip, #246	; 0xf6
     e40:	e03d      	b.n	ebe <_ZN4core3str16slice_error_fail17ha07c7d3fb883eb1aE+0x244>
     e42:	f10c 0cf5 	add.w	ip, ip, #245	; 0xf5
     e46:	e03a      	b.n	ebe <_ZN4core3str16slice_error_fail17ha07c7d3fb883eb1aE+0x244>
     e48:	f10c 0cf4 	add.w	ip, ip, #244	; 0xf4
     e4c:	e037      	b.n	ebe <_ZN4core3str16slice_error_fail17ha07c7d3fb883eb1aE+0x244>
     e4e:	f10c 0cf3 	add.w	ip, ip, #243	; 0xf3
     e52:	e034      	b.n	ebe <_ZN4core3str16slice_error_fail17ha07c7d3fb883eb1aE+0x244>
     e54:	f10c 0cf2 	add.w	ip, ip, #242	; 0xf2
     e58:	e031      	b.n	ebe <_ZN4core3str16slice_error_fail17ha07c7d3fb883eb1aE+0x244>
     e5a:	f10c 0cf1 	add.w	ip, ip, #241	; 0xf1
     e5e:	e02e      	b.n	ebe <_ZN4core3str16slice_error_fail17ha07c7d3fb883eb1aE+0x244>
     e60:	f10c 0cf0 	add.w	ip, ip, #240	; 0xf0
     e64:	e02b      	b.n	ebe <_ZN4core3str16slice_error_fail17ha07c7d3fb883eb1aE+0x244>
     e66:	f10c 0cef 	add.w	ip, ip, #239	; 0xef
     e6a:	e028      	b.n	ebe <_ZN4core3str16slice_error_fail17ha07c7d3fb883eb1aE+0x244>
     e6c:	f10c 0cee 	add.w	ip, ip, #238	; 0xee
     e70:	e025      	b.n	ebe <_ZN4core3str16slice_error_fail17ha07c7d3fb883eb1aE+0x244>
     e72:	f10c 0ced 	add.w	ip, ip, #237	; 0xed
     e76:	e022      	b.n	ebe <_ZN4core3str16slice_error_fail17ha07c7d3fb883eb1aE+0x244>
     e78:	f10c 0cec 	add.w	ip, ip, #236	; 0xec
     e7c:	e01f      	b.n	ebe <_ZN4core3str16slice_error_fail17ha07c7d3fb883eb1aE+0x244>
     e7e:	f10c 0ceb 	add.w	ip, ip, #235	; 0xeb
     e82:	e01c      	b.n	ebe <_ZN4core3str16slice_error_fail17ha07c7d3fb883eb1aE+0x244>
     e84:	f10c 0cea 	add.w	ip, ip, #234	; 0xea
     e88:	e019      	b.n	ebe <_ZN4core3str16slice_error_fail17ha07c7d3fb883eb1aE+0x244>
     e8a:	f10c 0ce9 	add.w	ip, ip, #233	; 0xe9
     e8e:	e016      	b.n	ebe <_ZN4core3str16slice_error_fail17ha07c7d3fb883eb1aE+0x244>
     e90:	f10c 0ce8 	add.w	ip, ip, #232	; 0xe8
     e94:	e013      	b.n	ebe <_ZN4core3str16slice_error_fail17ha07c7d3fb883eb1aE+0x244>
     e96:	f10c 0ce7 	add.w	ip, ip, #231	; 0xe7
     e9a:	e010      	b.n	ebe <_ZN4core3str16slice_error_fail17ha07c7d3fb883eb1aE+0x244>
     e9c:	f10c 0ce6 	add.w	ip, ip, #230	; 0xe6
     ea0:	e00d      	b.n	ebe <_ZN4core3str16slice_error_fail17ha07c7d3fb883eb1aE+0x244>
     ea2:	f10c 0ce5 	add.w	ip, ip, #229	; 0xe5
     ea6:	e00a      	b.n	ebe <_ZN4core3str16slice_error_fail17ha07c7d3fb883eb1aE+0x244>
     ea8:	f10c 0ce4 	add.w	ip, ip, #228	; 0xe4
     eac:	e007      	b.n	ebe <_ZN4core3str16slice_error_fail17ha07c7d3fb883eb1aE+0x244>
     eae:	f10c 0ce3 	add.w	ip, ip, #227	; 0xe3
     eb2:	e004      	b.n	ebe <_ZN4core3str16slice_error_fail17ha07c7d3fb883eb1aE+0x244>
     eb4:	f10c 0ce2 	add.w	ip, ip, #226	; 0xe2
     eb8:	e001      	b.n	ebe <_ZN4core3str16slice_error_fail17ha07c7d3fb883eb1aE+0x244>
     eba:	f10c 0ce1 	add.w	ip, ip, #225	; 0xe1
     ebe:	458c      	cmp	ip, r1
     ec0:	d904      	bls.n	ecc <_ZN4core3str16slice_error_fail17ha07c7d3fb883eb1aE+0x252>
     ec2:	2200      	movs	r2, #0
     ec4:	4663      	mov	r3, ip
     ec6:	f7ff fed8 	bl	c7a <_ZN4core3str16slice_error_fail17ha07c7d3fb883eb1aE>
     eca:	defe      	udf	#254	; 0xfe
     ecc:	428a      	cmp	r2, r1
     ece:	d803      	bhi.n	ed8 <_ZN4core3str16slice_error_fail17ha07c7d3fb883eb1aE+0x25e>
     ed0:	428b      	cmp	r3, r1
     ed2:	bf98      	it	ls
     ed4:	429a      	cmpls	r2, r3
     ed6:	d902      	bls.n	ede <_ZN4core3str16slice_error_fail17ha07c7d3fb883eb1aE+0x264>
     ed8:	f7ff fbd5 	bl	686 <_ZN4core9panicking9panic_fmt17he9bb63f6e49b9efeE>
     edc:	defe      	udf	#254	; 0xfe
     ede:	b12a      	cbz	r2, eec <_ZN4core3str16slice_error_fail17ha07c7d3fb883eb1aE+0x272>
     ee0:	428a      	cmp	r2, r1
     ee2:	d205      	bcs.n	ef0 <_ZN4core3str16slice_error_fail17ha07c7d3fb883eb1aE+0x276>
     ee4:	5684      	ldrsb	r4, [r0, r2]
     ee6:	f114 0f40 	cmn.w	r4, #64	; 0x40
     eea:	db09      	blt.n	f00 <_ZN4core3str16slice_error_fail17ha07c7d3fb883eb1aE+0x286>
     eec:	461a      	mov	r2, r3
     eee:	e007      	b.n	f00 <_ZN4core3str16slice_error_fail17ha07c7d3fb883eb1aE+0x286>
     ef0:	4291      	cmp	r1, r2
     ef2:	bf08      	it	eq
     ef4:	461a      	moveq	r2, r3
     ef6:	e003      	b.n	f00 <_ZN4core3str16slice_error_fail17ha07c7d3fb883eb1aE+0x286>
     ef8:	4291      	cmp	r1, r2
     efa:	d00d      	beq.n	f18 <_ZN4core3str16slice_error_fail17ha07c7d3fb883eb1aE+0x29e>
     efc:	3a01      	subs	r2, #1
     efe:	d008      	beq.n	f12 <_ZN4core3str16slice_error_fail17ha07c7d3fb883eb1aE+0x298>
     f00:	428a      	cmp	r2, r1
     f02:	d2f9      	bcs.n	ef8 <_ZN4core3str16slice_error_fail17ha07c7d3fb883eb1aE+0x27e>
     f04:	5683      	ldrsb	r3, [r0, r2]
     f06:	f113 0f40 	cmn.w	r3, #64	; 0x40
     f0a:	dbf7      	blt.n	efc <_ZN4core3str16slice_error_fail17ha07c7d3fb883eb1aE+0x282>
     f0c:	428a      	cmp	r2, r1
     f0e:	d003      	beq.n	f18 <_ZN4core3str16slice_error_fail17ha07c7d3fb883eb1aE+0x29e>
     f10:	e00a      	b.n	f28 <_ZN4core3str16slice_error_fail17ha07c7d3fb883eb1aE+0x2ae>
     f12:	2200      	movs	r2, #0
     f14:	428a      	cmp	r2, r1
     f16:	d107      	bne.n	f28 <_ZN4core3str16slice_error_fail17ha07c7d3fb883eb1aE+0x2ae>
     f18:	f641 60c8 	movw	r0, #7880	; 0x1ec8
     f1c:	212b      	movs	r1, #43	; 0x2b
     f1e:	f2c0 0000 	movt	r0, #0
     f22:	f7ff fcb8 	bl	896 <_ZN4core9panicking5panic17h3b40e675b01166f8E>
     f26:	defe      	udf	#254	; 0xfe
     f28:	4410      	add	r0, r2
     f2a:	f990 1000 	ldrsb.w	r1, [r0]
     f2e:	f1b1 3fff 	cmp.w	r1, #4294967295	; 0xffffffff
     f32:	dcd1      	bgt.n	ed8 <_ZN4core3str16slice_error_fail17ha07c7d3fb883eb1aE+0x25e>
     f34:	b2c9      	uxtb	r1, r1
     f36:	29e0      	cmp	r1, #224	; 0xe0
     f38:	bf28      	it	cs
     f3a:	29f0      	cmpcs	r1, #240	; 0xf0
     f3c:	d3cc      	bcc.n	ed8 <_ZN4core3str16slice_error_fail17ha07c7d3fb883eb1aE+0x25e>
     f3e:	7842      	ldrb	r2, [r0, #1]
     f40:	f001 0107 	and.w	r1, r1, #7
     f44:	7883      	ldrb	r3, [r0, #2]
     f46:	f002 023f 	and.w	r2, r2, #63	; 0x3f
     f4a:	78c0      	ldrb	r0, [r0, #3]
     f4c:	f003 033f 	and.w	r3, r3, #63	; 0x3f
     f50:	0312      	lsls	r2, r2, #12
     f52:	f000 003f 	and.w	r0, r0, #63	; 0x3f
     f56:	ea42 1283 	orr.w	r2, r2, r3, lsl #6
     f5a:	4410      	add	r0, r2
     f5c:	ea40 4081 	orr.w	r0, r0, r1, lsl #18
     f60:	f5b0 1f88 	cmp.w	r0, #1114112	; 0x110000
     f64:	d1b8      	bne.n	ed8 <_ZN4core3str16slice_error_fail17ha07c7d3fb883eb1aE+0x25e>
     f66:	e7d7      	b.n	f18 <_ZN4core3str16slice_error_fail17ha07c7d3fb883eb1aE+0x29e>

00000f68 <_ZN4core3fmt8builders11DebugStruct5field17h650ea8af2cdbbfa6E>:
     f68:	b5f0      	push	{r4, r5, r6, r7, lr}
     f6a:	af03      	add	r7, sp, #12
     f6c:	e92d 0700 	stmdb	sp!, {r8, r9, sl}
     f70:	b08c      	sub	sp, #48	; 0x30
     f72:	4604      	mov	r4, r0
     f74:	7900      	ldrb	r0, [r0, #4]
     f76:	f04f 0901 	mov.w	r9, #1
     f7a:	2800      	cmp	r0, #0
     f7c:	f04f 0001 	mov.w	r0, #1
     f80:	d179      	bne.n	1076 <_ZN4core3fmt8builders11DebugStruct5field17h650ea8af2cdbbfa6E+0x10e>
     f82:	6826      	ldr	r6, [r4, #0]
     f84:	4692      	mov	sl, r2
     f86:	7962      	ldrb	r2, [r4, #5]
     f88:	4698      	mov	r8, r3
     f8a:	460d      	mov	r5, r1
     f8c:	7830      	ldrb	r0, [r6, #0]
     f8e:	0740      	lsls	r0, r0, #29
     f90:	d42d      	bmi.n	fee <_ZN4core3fmt8builders11DebugStruct5field17h650ea8af2cdbbfa6E+0x86>
     f92:	f641 7121 	movw	r1, #7969	; 0x1f21
     f96:	f641 7c23 	movw	ip, #7971	; 0x1f23
     f9a:	e9d6 0306 	ldrd	r0, r3, [r6, #24]
     f9e:	f2c0 0100 	movt	r1, #0
     fa2:	2a00      	cmp	r2, #0
     fa4:	f2c0 0c00 	movt	ip, #0
     fa8:	bf08      	it	eq
     faa:	4661      	moveq	r1, ip
     fac:	68db      	ldr	r3, [r3, #12]
     fae:	f04f 0202 	mov.w	r2, #2
     fb2:	bf08      	it	eq
     fb4:	2203      	moveq	r2, #3
     fb6:	4798      	blx	r3
     fb8:	2800      	cmp	r0, #0
     fba:	d15b      	bne.n	1074 <_ZN4core3fmt8builders11DebugStruct5field17h650ea8af2cdbbfa6E+0x10c>
     fbc:	e9d6 0106 	ldrd	r0, r1, [r6, #24]
     fc0:	4652      	mov	r2, sl
     fc2:	68cb      	ldr	r3, [r1, #12]
     fc4:	4629      	mov	r1, r5
     fc6:	4798      	blx	r3
     fc8:	2800      	cmp	r0, #0
     fca:	d153      	bne.n	1074 <_ZN4core3fmt8builders11DebugStruct5field17h650ea8af2cdbbfa6E+0x10c>
     fcc:	e9d6 0106 	ldrd	r0, r1, [r6, #24]
     fd0:	2202      	movs	r2, #2
     fd2:	68cb      	ldr	r3, [r1, #12]
     fd4:	f641 61f3 	movw	r1, #7923	; 0x1ef3
     fd8:	f2c0 0100 	movt	r1, #0
     fdc:	4798      	blx	r3
     fde:	2800      	cmp	r0, #0
     fe0:	d148      	bne.n	1074 <_ZN4core3fmt8builders11DebugStruct5field17h650ea8af2cdbbfa6E+0x10c>
     fe2:	e9d6 1206 	ldrd	r1, r2, [r6, #24]
     fe6:	4640      	mov	r0, r8
     fe8:	f000 fa29 	bl	143e <_ZN110_$LT$$LT$cortex_m_rt..ExceptionFrame$u20$as$u20$core..fmt..Debug$GT$..fmt..Hex$u20$as$u20$core..fmt..Debug$GT$3fmt17hf020cdd8e88c996aE>
     fec:	e043      	b.n	1076 <_ZN4core3fmt8builders11DebugStruct5field17h650ea8af2cdbbfa6E+0x10e>
     fee:	b94a      	cbnz	r2, 1004 <_ZN4core3fmt8builders11DebugStruct5field17h650ea8af2cdbbfa6E+0x9c>
     ff0:	e9d6 0106 	ldrd	r0, r1, [r6, #24]
     ff4:	2203      	movs	r2, #3
     ff6:	68cb      	ldr	r3, [r1, #12]
     ff8:	f641 711c 	movw	r1, #7964	; 0x1f1c
     ffc:	f2c0 0100 	movt	r1, #0
    1000:	4798      	blx	r3
    1002:	bbb8      	cbnz	r0, 1074 <_ZN4core3fmt8builders11DebugStruct5field17h650ea8af2cdbbfa6E+0x10c>
    1004:	f1a7 0039 	sub.w	r0, r7, #57	; 0x39
    1008:	9002      	str	r0, [sp, #8]
    100a:	e9d6 0106 	ldrd	r0, r1, [r6, #24]
    100e:	2201      	movs	r2, #1
    1010:	e9cd 0100 	strd	r0, r1, [sp]
    1014:	4668      	mov	r0, sp
    1016:	f807 2c39 	strb.w	r2, [r7, #-57]
    101a:	4629      	mov	r1, r5
    101c:	4652      	mov	r2, sl
    101e:	f7ff fd01 	bl	a24 <_ZN68_$LT$core..fmt..builders..PadAdapter$u20$as$u20$core..fmt..Write$GT$9write_str17hcad994d5083289acE>
    1022:	bb38      	cbnz	r0, 1074 <_ZN4core3fmt8builders11DebugStruct5field17h650ea8af2cdbbfa6E+0x10c>
    1024:	f641 61f3 	movw	r1, #7923	; 0x1ef3
    1028:	4668      	mov	r0, sp
    102a:	f2c0 0100 	movt	r1, #0
    102e:	2202      	movs	r2, #2
    1030:	f7ff fcf8 	bl	a24 <_ZN68_$LT$core..fmt..builders..PadAdapter$u20$as$u20$core..fmt..Write$GT$9write_str17hcad994d5083289acE>
    1034:	b9f0      	cbnz	r0, 1074 <_ZN4core3fmt8builders11DebugStruct5field17h650ea8af2cdbbfa6E+0x10c>
    1036:	f241 2075 	movw	r0, #4725	; 0x1275
    103a:	a904      	add	r1, sp, #16
    103c:	f2c0 0000 	movt	r0, #0
    1040:	aa06      	add	r2, sp, #24
    1042:	e9cd 8004 	strd	r8, r0, [sp, #16]
    1046:	2001      	movs	r0, #1
    1048:	e9cd 0109 	strd	r0, r1, [sp, #36]	; 0x24
    104c:	f242 0134 	movw	r1, #8244	; 0x2034
    1050:	f2c0 0100 	movt	r1, #0
    1054:	900b      	str	r0, [sp, #44]	; 0x2c
    1056:	e9cd 0107 	strd	r0, r1, [sp, #28]
    105a:	f242 002c 	movw	r0, #8236	; 0x202c
    105e:	f641 61f8 	movw	r1, #7928	; 0x1ef8
    1062:	f2c0 0000 	movt	r0, #0
    1066:	9006      	str	r0, [sp, #24]
    1068:	f2c0 0100 	movt	r1, #0
    106c:	4668      	mov	r0, sp
    106e:	f7ff fc17 	bl	8a0 <_ZN4core3fmt5write17habbe2038e9c9aa1cE>
    1072:	b140      	cbz	r0, 1086 <_ZN4core3fmt8builders11DebugStruct5field17h650ea8af2cdbbfa6E+0x11e>
    1074:	2001      	movs	r0, #1
    1076:	7120      	strb	r0, [r4, #4]
    1078:	4620      	mov	r0, r4
    107a:	f884 9005 	strb.w	r9, [r4, #5]
    107e:	b00c      	add	sp, #48	; 0x30
    1080:	e8bd 0700 	ldmia.w	sp!, {r8, r9, sl}
    1084:	bdf0      	pop	{r4, r5, r6, r7, pc}
    1086:	f641 711f 	movw	r1, #7967	; 0x1f1f
    108a:	4668      	mov	r0, sp
    108c:	f2c0 0100 	movt	r1, #0
    1090:	2202      	movs	r2, #2
    1092:	f7ff fcc7 	bl	a24 <_ZN68_$LT$core..fmt..builders..PadAdapter$u20$as$u20$core..fmt..Write$GT$9write_str17hcad994d5083289acE>
    1096:	e7ee      	b.n	1076 <_ZN4core3fmt8builders11DebugStruct5field17h650ea8af2cdbbfa6E+0x10e>

00001098 <_ZN4core3fmt5Write10write_char17h06aeb80472b303a6E>:
    1098:	b580      	push	{r7, lr}
    109a:	466f      	mov	r7, sp
    109c:	b082      	sub	sp, #8
    109e:	2200      	movs	r2, #0
    10a0:	2980      	cmp	r1, #128	; 0x80
    10a2:	9201      	str	r2, [sp, #4]
    10a4:	d203      	bcs.n	10ae <_ZN4core3fmt5Write10write_char17h06aeb80472b303a6E+0x16>
    10a6:	f88d 1004 	strb.w	r1, [sp, #4]
    10aa:	2201      	movs	r2, #1
    10ac:	e02f      	b.n	110e <_ZN4core3fmt5Write10write_char17h06aeb80472b303a6E+0x76>
    10ae:	2202      	movs	r2, #2
    10b0:	460b      	mov	r3, r1
    10b2:	f362 139f 	bfi	r3, r2, #6, #26
    10b6:	f5b1 6f00 	cmp.w	r1, #2048	; 0x800
    10ba:	d205      	bcs.n	10c8 <_ZN4core3fmt5Write10write_char17h06aeb80472b303a6E+0x30>
    10bc:	f88d 3005 	strb.w	r3, [sp, #5]
    10c0:	23c0      	movs	r3, #192	; 0xc0
    10c2:	ea43 1191 	orr.w	r1, r3, r1, lsr #6
    10c6:	e020      	b.n	110a <_ZN4core3fmt5Write10write_char17h06aeb80472b303a6E+0x72>
    10c8:	f5b1 3f80 	cmp.w	r1, #65536	; 0x10000
    10cc:	d20d      	bcs.n	10ea <_ZN4core3fmt5Write10write_char17h06aeb80472b303a6E+0x52>
    10ce:	f88d 3006 	strb.w	r3, [sp, #6]
    10d2:	098b      	lsrs	r3, r1, #6
    10d4:	f362 139f 	bfi	r3, r2, #6, #26
    10d8:	22e0      	movs	r2, #224	; 0xe0
    10da:	ea42 3111 	orr.w	r1, r2, r1, lsr #12
    10de:	f88d 3005 	strb.w	r3, [sp, #5]
    10e2:	f88d 1004 	strb.w	r1, [sp, #4]
    10e6:	2203      	movs	r2, #3
    10e8:	e011      	b.n	110e <_ZN4core3fmt5Write10write_char17h06aeb80472b303a6E+0x76>
    10ea:	f88d 3007 	strb.w	r3, [sp, #7]
    10ee:	098b      	lsrs	r3, r1, #6
    10f0:	f362 139f 	bfi	r3, r2, #6, #26
    10f4:	f88d 3006 	strb.w	r3, [sp, #6]
    10f8:	0b0b      	lsrs	r3, r1, #12
    10fa:	f362 139f 	bfi	r3, r2, #6, #26
    10fe:	22f0      	movs	r2, #240	; 0xf0
    1100:	ea42 4191 	orr.w	r1, r2, r1, lsr #18
    1104:	2204      	movs	r2, #4
    1106:	f88d 3005 	strb.w	r3, [sp, #5]
    110a:	f88d 1004 	strb.w	r1, [sp, #4]
    110e:	a901      	add	r1, sp, #4
    1110:	f7ff fc88 	bl	a24 <_ZN68_$LT$core..fmt..builders..PadAdapter$u20$as$u20$core..fmt..Write$GT$9write_str17hcad994d5083289acE>
    1114:	b002      	add	sp, #8
    1116:	bd80      	pop	{r7, pc}

00001118 <_ZN4core3fmt5Write9write_fmt17he78d6c442e32fb0eE>:
    1118:	b5f0      	push	{r4, r5, r6, r7, lr}
    111a:	af03      	add	r7, sp, #12
    111c:	f84d bd04 	str.w	fp, [sp, #-4]!
    1120:	b088      	sub	sp, #32
    1122:	9001      	str	r0, [sp, #4]
    1124:	aa02      	add	r2, sp, #8
    1126:	e891 5078 	ldmia.w	r1, {r3, r4, r5, r6, ip, lr}
    112a:	f641 71f4 	movw	r1, #8180	; 0x1ff4
    112e:	4610      	mov	r0, r2
    1130:	f2c0 0100 	movt	r1, #0
    1134:	e880 5078 	stmia.w	r0, {r3, r4, r5, r6, ip, lr}
    1138:	a801      	add	r0, sp, #4
    113a:	f7ff fbb1 	bl	8a0 <_ZN4core3fmt5write17habbe2038e9c9aa1cE>
    113e:	b008      	add	sp, #32
    1140:	f85d bb04 	ldr.w	fp, [sp], #4
    1144:	bdf0      	pop	{r4, r5, r6, r7, pc}

00001146 <_ZN50_$LT$$RF$mut$u20$W$u20$as$u20$core..fmt..Write$GT$9write_str17h3c905fabcbd7d32fE>:
    1146:	6800      	ldr	r0, [r0, #0]
    1148:	f7ff bc6c 	b.w	a24 <_ZN68_$LT$core..fmt..builders..PadAdapter$u20$as$u20$core..fmt..Write$GT$9write_str17hcad994d5083289acE>

0000114c <_ZN50_$LT$$RF$mut$u20$W$u20$as$u20$core..fmt..Write$GT$10write_char17h2a2f6ececd88b50eE>:
    114c:	b580      	push	{r7, lr}
    114e:	466f      	mov	r7, sp
    1150:	b082      	sub	sp, #8
    1152:	6800      	ldr	r0, [r0, #0]
    1154:	2200      	movs	r2, #0
    1156:	2980      	cmp	r1, #128	; 0x80
    1158:	9201      	str	r2, [sp, #4]
    115a:	d203      	bcs.n	1164 <_ZN50_$LT$$RF$mut$u20$W$u20$as$u20$core..fmt..Write$GT$10write_char17h2a2f6ececd88b50eE+0x18>
    115c:	f88d 1004 	strb.w	r1, [sp, #4]
    1160:	2201      	movs	r2, #1
    1162:	e02f      	b.n	11c4 <_ZN50_$LT$$RF$mut$u20$W$u20$as$u20$core..fmt..Write$GT$10write_char17h2a2f6ececd88b50eE+0x78>
    1164:	2202      	movs	r2, #2
    1166:	460b      	mov	r3, r1
    1168:	f362 139f 	bfi	r3, r2, #6, #26
    116c:	f5b1 6f00 	cmp.w	r1, #2048	; 0x800
    1170:	d205      	bcs.n	117e <_ZN50_$LT$$RF$mut$u20$W$u20$as$u20$core..fmt..Write$GT$10write_char17h2a2f6ececd88b50eE+0x32>
    1172:	f88d 3005 	strb.w	r3, [sp, #5]
    1176:	23c0      	movs	r3, #192	; 0xc0
    1178:	ea43 1191 	orr.w	r1, r3, r1, lsr #6
    117c:	e020      	b.n	11c0 <_ZN50_$LT$$RF$mut$u20$W$u20$as$u20$core..fmt..Write$GT$10write_char17h2a2f6ececd88b50eE+0x74>
    117e:	f5b1 3f80 	cmp.w	r1, #65536	; 0x10000
    1182:	d20d      	bcs.n	11a0 <_ZN50_$LT$$RF$mut$u20$W$u20$as$u20$core..fmt..Write$GT$10write_char17h2a2f6ececd88b50eE+0x54>
    1184:	f88d 3006 	strb.w	r3, [sp, #6]
    1188:	098b      	lsrs	r3, r1, #6
    118a:	f362 139f 	bfi	r3, r2, #6, #26
    118e:	22e0      	movs	r2, #224	; 0xe0
    1190:	ea42 3111 	orr.w	r1, r2, r1, lsr #12
    1194:	f88d 3005 	strb.w	r3, [sp, #5]
    1198:	f88d 1004 	strb.w	r1, [sp, #4]
    119c:	2203      	movs	r2, #3
    119e:	e011      	b.n	11c4 <_ZN50_$LT$$RF$mut$u20$W$u20$as$u20$core..fmt..Write$GT$10write_char17h2a2f6ececd88b50eE+0x78>
    11a0:	f88d 3007 	strb.w	r3, [sp, #7]
    11a4:	098b      	lsrs	r3, r1, #6
    11a6:	f362 139f 	bfi	r3, r2, #6, #26
    11aa:	f88d 3006 	strb.w	r3, [sp, #6]
    11ae:	0b0b      	lsrs	r3, r1, #12
    11b0:	f362 139f 	bfi	r3, r2, #6, #26
    11b4:	22f0      	movs	r2, #240	; 0xf0
    11b6:	ea42 4191 	orr.w	r1, r2, r1, lsr #18
    11ba:	2204      	movs	r2, #4
    11bc:	f88d 3005 	strb.w	r3, [sp, #5]
    11c0:	f88d 1004 	strb.w	r1, [sp, #4]
    11c4:	a901      	add	r1, sp, #4
    11c6:	f7ff fc2d 	bl	a24 <_ZN68_$LT$core..fmt..builders..PadAdapter$u20$as$u20$core..fmt..Write$GT$9write_str17hcad994d5083289acE>
    11ca:	b002      	add	sp, #8
    11cc:	bd80      	pop	{r7, pc}

000011ce <_ZN50_$LT$$RF$mut$u20$W$u20$as$u20$core..fmt..Write$GT$9write_fmt17h6710504c173676d0E>:
    11ce:	b5f0      	push	{r4, r5, r6, r7, lr}
    11d0:	af03      	add	r7, sp, #12
    11d2:	f84d bd04 	str.w	fp, [sp, #-4]!
    11d6:	b088      	sub	sp, #32
    11d8:	6800      	ldr	r0, [r0, #0]
    11da:	aa02      	add	r2, sp, #8
    11dc:	9001      	str	r0, [sp, #4]
    11de:	e891 5078 	ldmia.w	r1, {r3, r4, r5, r6, ip, lr}
    11e2:	4610      	mov	r0, r2
    11e4:	f641 71f4 	movw	r1, #8180	; 0x1ff4
    11e8:	f2c0 0100 	movt	r1, #0
    11ec:	e880 5078 	stmia.w	r0, {r3, r4, r5, r6, ip, lr}
    11f0:	a801      	add	r0, sp, #4
    11f2:	f7ff fb55 	bl	8a0 <_ZN4core3fmt5write17habbe2038e9c9aa1cE>
    11f6:	b008      	add	sp, #32
    11f8:	f85d bb04 	ldr.w	fp, [sp], #4
    11fc:	bdf0      	pop	{r4, r5, r6, r7, pc}

000011fe <_ZN4core3fmt3num3imp51_$LT$impl$u20$core..fmt..Display$u20$for$u20$u8$GT$3fmt17haa061c2114316a37E>:
    11fe:	b580      	push	{r7, lr}
    1200:	466f      	mov	r7, sp
    1202:	b08c      	sub	sp, #48	; 0x30
    1204:	7802      	ldrb	r2, [r0, #0]
    1206:	2a63      	cmp	r2, #99	; 0x63
    1208:	d913      	bls.n	1232 <_ZN4core3fmt3num3imp51_$LT$impl$u20$core..fmt..Display$u20$for$u20$u8$GT$3fmt17haa061c2114316a37E+0x34>
    120a:	b2d0      	uxtb	r0, r2
    120c:	2329      	movs	r3, #41	; 0x29
    120e:	4358      	muls	r0, r3
    1210:	0b03      	lsrs	r3, r0, #12
    1212:	f06f 0063 	mvn.w	r0, #99	; 0x63
    1216:	fb13 2000 	smlabb	r0, r3, r0, r2
    121a:	f641 7229 	movw	r2, #7977	; 0x1f29
    121e:	f2c0 0200 	movt	r2, #0
    1222:	b2c0      	uxtb	r0, r0
    1224:	f832 0010 	ldrh.w	r0, [r2, r0, lsl #1]
    1228:	461a      	mov	r2, r3
    122a:	f8ad 002d 	strh.w	r0, [sp, #45]	; 0x2d
    122e:	2024      	movs	r0, #36	; 0x24
    1230:	e002      	b.n	1238 <_ZN4core3fmt3num3imp51_$LT$impl$u20$core..fmt..Display$u20$for$u20$u8$GT$3fmt17haa061c2114316a37E+0x3a>
    1232:	2a0a      	cmp	r2, #10
    1234:	d204      	bcs.n	1240 <_ZN4core3fmt3num3imp51_$LT$impl$u20$core..fmt..Display$u20$for$u20$u8$GT$3fmt17haa061c2114316a37E+0x42>
    1236:	2026      	movs	r0, #38	; 0x26
    1238:	ab02      	add	r3, sp, #8
    123a:	3230      	adds	r2, #48	; 0x30
    123c:	541a      	strb	r2, [r3, r0]
    123e:	e008      	b.n	1252 <_ZN4core3fmt3num3imp51_$LT$impl$u20$core..fmt..Display$u20$for$u20$u8$GT$3fmt17haa061c2114316a37E+0x54>
    1240:	f641 7029 	movw	r0, #7977	; 0x1f29
    1244:	f2c0 0000 	movt	r0, #0
    1248:	f830 0012 	ldrh.w	r0, [r0, r2, lsl #1]
    124c:	f8ad 002d 	strh.w	r0, [sp, #45]	; 0x2d
    1250:	2025      	movs	r0, #37	; 0x25
    1252:	f1c0 0227 	rsb	r2, r0, #39	; 0x27
    1256:	ab02      	add	r3, sp, #8
    1258:	4418      	add	r0, r3
    125a:	2300      	movs	r3, #0
    125c:	e9cd 0200 	strd	r0, r2, [sp]
    1260:	f242 020c 	movw	r2, #8204	; 0x200c
    1264:	4608      	mov	r0, r1
    1266:	f2c0 0200 	movt	r2, #0
    126a:	2101      	movs	r1, #1
    126c:	f7ff fa11 	bl	692 <_ZN4core3fmt9Formatter12pad_integral17h54d3eb9f4808425fE>
    1270:	b00c      	add	sp, #48	; 0x30
    1272:	bd80      	pop	{r7, pc}

00001274 <_ZN4core3fmt3num53_$LT$impl$u20$core..fmt..LowerHex$u20$for$u20$i32$GT$3fmt17hab14881fa63bd10bE>:
    1274:	b5d0      	push	{r4, r6, r7, lr}
    1276:	af02      	add	r7, sp, #8
    1278:	b0a2      	sub	sp, #136	; 0x88
    127a:	6800      	ldr	r0, [r0, #0]
    127c:	f10d 0c08 	add.w	ip, sp, #8
    1280:	f04f 0e81 	mov.w	lr, #129	; 0x81
    1284:	f000 020f 	and.w	r2, r0, #15
    1288:	eb0c 030e 	add.w	r3, ip, lr
    128c:	2457      	movs	r4, #87	; 0x57
    128e:	2a0a      	cmp	r2, #10
    1290:	bf38      	it	cc
    1292:	2430      	movcc	r4, #48	; 0x30
    1294:	4422      	add	r2, r4
    1296:	f803 2c02 	strb.w	r2, [r3, #-2]
    129a:	0902      	lsrs	r2, r0, #4
    129c:	d025      	beq.n	12ea <_ZN4core3fmt3num53_$LT$impl$u20$core..fmt..LowerHex$u20$for$u20$i32$GT$3fmt17hab14881fa63bd10bE+0x76>
    129e:	f002 020f 	and.w	r2, r2, #15
    12a2:	2457      	movs	r4, #87	; 0x57
    12a4:	2a0a      	cmp	r2, #10
    12a6:	bf38      	it	cc
    12a8:	2430      	movcc	r4, #48	; 0x30
    12aa:	4422      	add	r2, r4
    12ac:	f803 2c03 	strb.w	r2, [r3, #-3]
    12b0:	0a02      	lsrs	r2, r0, #8
    12b2:	d01f      	beq.n	12f4 <_ZN4core3fmt3num53_$LT$impl$u20$core..fmt..LowerHex$u20$for$u20$i32$GT$3fmt17hab14881fa63bd10bE+0x80>
    12b4:	f002 020f 	and.w	r2, r2, #15
    12b8:	2457      	movs	r4, #87	; 0x57
    12ba:	2a0a      	cmp	r2, #10
    12bc:	bf38      	it	cc
    12be:	2430      	movcc	r4, #48	; 0x30
    12c0:	4422      	add	r2, r4
    12c2:	f803 2c04 	strb.w	r2, [r3, #-4]
    12c6:	0b02      	lsrs	r2, r0, #12
    12c8:	d019      	beq.n	12fe <_ZN4core3fmt3num53_$LT$impl$u20$core..fmt..LowerHex$u20$for$u20$i32$GT$3fmt17hab14881fa63bd10bE+0x8a>
    12ca:	f002 020f 	and.w	r2, r2, #15
    12ce:	2457      	movs	r4, #87	; 0x57
    12d0:	2a0a      	cmp	r2, #10
    12d2:	f1ae 0e04 	sub.w	lr, lr, #4
    12d6:	bf38      	it	cc
    12d8:	2430      	movcc	r4, #48	; 0x30
    12da:	0c00      	lsrs	r0, r0, #16
    12dc:	4422      	add	r2, r4
    12de:	f803 2c05 	strb.w	r2, [r3, #-5]
    12e2:	d1cf      	bne.n	1284 <_ZN4core3fmt3num53_$LT$impl$u20$core..fmt..LowerHex$u20$for$u20$i32$GT$3fmt17hab14881fa63bd10bE+0x10>
    12e4:	f1ae 0001 	sub.w	r0, lr, #1
    12e8:	e00d      	b.n	1306 <_ZN4core3fmt3num53_$LT$impl$u20$core..fmt..LowerHex$u20$for$u20$i32$GT$3fmt17hab14881fa63bd10bE+0x92>
    12ea:	f1ae 0002 	sub.w	r0, lr, #2
    12ee:	f1ae 0e01 	sub.w	lr, lr, #1
    12f2:	e008      	b.n	1306 <_ZN4core3fmt3num53_$LT$impl$u20$core..fmt..LowerHex$u20$for$u20$i32$GT$3fmt17hab14881fa63bd10bE+0x92>
    12f4:	f1ae 0003 	sub.w	r0, lr, #3
    12f8:	f1ae 0e02 	sub.w	lr, lr, #2
    12fc:	e003      	b.n	1306 <_ZN4core3fmt3num53_$LT$impl$u20$core..fmt..LowerHex$u20$for$u20$i32$GT$3fmt17hab14881fa63bd10bE+0x92>
    12fe:	f1ae 0004 	sub.w	r0, lr, #4
    1302:	f1ae 0e03 	sub.w	lr, lr, #3
    1306:	2881      	cmp	r0, #129	; 0x81
    1308:	d20f      	bcs.n	132a <_ZN4core3fmt3num53_$LT$impl$u20$core..fmt..LowerHex$u20$for$u20$i32$GT$3fmt17hab14881fa63bd10bE+0xb6>
    130a:	f1ce 0281 	rsb	r2, lr, #129	; 0x81
    130e:	4460      	add	r0, ip
    1310:	2302      	movs	r3, #2
    1312:	e9cd 0200 	strd	r0, r2, [sp]
    1316:	f242 0229 	movw	r2, #8233	; 0x2029
    131a:	4608      	mov	r0, r1
    131c:	f2c0 0200 	movt	r2, #0
    1320:	2101      	movs	r1, #1
    1322:	f7ff f9b6 	bl	692 <_ZN4core3fmt9Formatter12pad_integral17h54d3eb9f4808425fE>
    1326:	b022      	add	sp, #136	; 0x88
    1328:	bdd0      	pop	{r4, r6, r7, pc}
    132a:	2180      	movs	r1, #128	; 0x80
    132c:	f7ff faae 	bl	88c <_ZN4core5slice5index26slice_start_index_len_fail17h4ce40613b75cbd5eE>
    1330:	defe      	udf	#254	; 0xfe

00001332 <_ZN4core3fmt3num3imp52_$LT$impl$u20$core..fmt..Display$u20$for$u20$i32$GT$3fmt17hcfe65ab13524ea29E>:
    1332:	b5f0      	push	{r4, r5, r6, r7, lr}
    1334:	af03      	add	r7, sp, #12
    1336:	e92d 0f00 	stmdb	sp!, {r8, r9, sl, fp}
    133a:	b08f      	sub	sp, #60	; 0x3c
    133c:	6804      	ldr	r4, [r0, #0]
    133e:	468c      	mov	ip, r1
    1340:	f641 7129 	movw	r1, #7977	; 0x1f29
    1344:	f64f 769c 	movw	r6, #65436	; 0xff9c
    1348:	2c00      	cmp	r4, #0
    134a:	f242 7010 	movw	r0, #10000	; 0x2710
    134e:	4625      	mov	r5, r4
    1350:	f2c0 0100 	movt	r1, #0
    1354:	bf48      	it	mi
    1356:	4265      	negmi	r5, r4
    1358:	4285      	cmp	r5, r0
    135a:	d344      	bcc.n	13e6 <_ZN4core3fmt3num3imp52_$LT$impl$u20$core..fmt..Display$u20$for$u20$i32$GT$3fmt17hcfe65ab13524ea29E+0xb4>
    135c:	f64d 0af0 	movw	sl, #55536	; 0xd8f0
    1360:	f24e 08ff 	movw	r8, #57599	; 0xe0ff
    1364:	f10d 0e14 	add.w	lr, sp, #20
    1368:	2000      	movs	r0, #0
    136a:	f6cf 7aff 	movt	sl, #65535	; 0xffff
    136e:	f241 4b7b 	movw	fp, #5243	; 0x147b
    1372:	f64f 799c 	movw	r9, #65436	; 0xff9c
    1376:	f2c0 58f5 	movt	r8, #1525	; 0x5f5
    137a:	e9cd 4c03 	strd	r4, ip, [sp, #12]
    137e:	f241 7259 	movw	r2, #5977	; 0x1759
    1382:	eb0e 0400 	add.w	r4, lr, r0
    1386:	f2cd 12b7 	movt	r2, #53687	; 0xd1b7
    138a:	3804      	subs	r0, #4
    138c:	fba5 2602 	umull	r2, r6, r5, r2
    1390:	4545      	cmp	r5, r8
    1392:	ea4f 3256 	mov.w	r2, r6, lsr #13
    1396:	fb02 560a 	mla	r6, r2, sl, r5
    139a:	4615      	mov	r5, r2
    139c:	fa1f fc86 	uxth.w	ip, r6
    13a0:	ea4f 039c 	mov.w	r3, ip, lsr #2
    13a4:	fb03 f30b 	mul.w	r3, r3, fp
    13a8:	ea4f 4353 	mov.w	r3, r3, lsr #17
    13ac:	fb03 6609 	mla	r6, r3, r9, r6
    13b0:	f831 3013 	ldrh.w	r3, [r1, r3, lsl #1]
    13b4:	f8a4 3023 	strh.w	r3, [r4, #35]	; 0x23
    13b8:	b2b6      	uxth	r6, r6
    13ba:	f831 6016 	ldrh.w	r6, [r1, r6, lsl #1]
    13be:	f8a4 6025 	strh.w	r6, [r4, #37]	; 0x25
    13c2:	d8dc      	bhi.n	137e <_ZN4core3fmt3num3imp52_$LT$impl$u20$core..fmt..Display$u20$for$u20$i32$GT$3fmt17hcfe65ab13524ea29E+0x4c>
    13c4:	e9dd 4c03 	ldrd	r4, ip, [sp, #12]
    13c8:	3027      	adds	r0, #39	; 0x27
    13ca:	4615      	mov	r5, r2
    13cc:	f64f 769c 	movw	r6, #65436	; 0xff9c
    13d0:	2d63      	cmp	r5, #99	; 0x63
    13d2:	dc0b      	bgt.n	13ec <_ZN4core3fmt3num3imp52_$LT$impl$u20$core..fmt..Display$u20$for$u20$i32$GT$3fmt17hcfe65ab13524ea29E+0xba>
    13d4:	462a      	mov	r2, r5
    13d6:	2a0a      	cmp	r2, #10
    13d8:	db18      	blt.n	140c <_ZN4core3fmt3num3imp52_$LT$impl$u20$core..fmt..Display$u20$for$u20$i32$GT$3fmt17hcfe65ab13524ea29E+0xda>
    13da:	f831 1012 	ldrh.w	r1, [r1, r2, lsl #1]
    13de:	3802      	subs	r0, #2
    13e0:	aa05      	add	r2, sp, #20
    13e2:	5211      	strh	r1, [r2, r0]
    13e4:	e017      	b.n	1416 <_ZN4core3fmt3num3imp52_$LT$impl$u20$core..fmt..Display$u20$for$u20$i32$GT$3fmt17hcfe65ab13524ea29E+0xe4>
    13e6:	2027      	movs	r0, #39	; 0x27
    13e8:	2d63      	cmp	r5, #99	; 0x63
    13ea:	ddf3      	ble.n	13d4 <_ZN4core3fmt3num3imp52_$LT$impl$u20$core..fmt..Display$u20$for$u20$i32$GT$3fmt17hcfe65ab13524ea29E+0xa2>
    13ec:	b2aa      	uxth	r2, r5
    13ee:	f241 437b 	movw	r3, #5243	; 0x147b
    13f2:	0892      	lsrs	r2, r2, #2
    13f4:	3802      	subs	r0, #2
    13f6:	435a      	muls	r2, r3
    13f8:	0c52      	lsrs	r2, r2, #17
    13fa:	fb02 5306 	mla	r3, r2, r6, r5
    13fe:	ae05      	add	r6, sp, #20
    1400:	b29b      	uxth	r3, r3
    1402:	f831 3013 	ldrh.w	r3, [r1, r3, lsl #1]
    1406:	5233      	strh	r3, [r6, r0]
    1408:	2a0a      	cmp	r2, #10
    140a:	dae6      	bge.n	13da <_ZN4core3fmt3num3imp52_$LT$impl$u20$core..fmt..Display$u20$for$u20$i32$GT$3fmt17hcfe65ab13524ea29E+0xa8>
    140c:	3801      	subs	r0, #1
    140e:	f102 0130 	add.w	r1, r2, #48	; 0x30
    1412:	aa05      	add	r2, sp, #20
    1414:	5411      	strb	r1, [r2, r0]
    1416:	f1c0 0127 	rsb	r1, r0, #39	; 0x27
    141a:	aa05      	add	r2, sp, #20
    141c:	4410      	add	r0, r2
    141e:	f242 020c 	movw	r2, #8204	; 0x200c
    1422:	e9cd 0100 	strd	r0, r1, [sp]
    1426:	43e0      	mvns	r0, r4
    1428:	0fc1      	lsrs	r1, r0, #31
    142a:	f2c0 0200 	movt	r2, #0
    142e:	4660      	mov	r0, ip
    1430:	2300      	movs	r3, #0
    1432:	f7ff f92e 	bl	692 <_ZN4core3fmt9Formatter12pad_integral17h54d3eb9f4808425fE>
    1436:	b00f      	add	sp, #60	; 0x3c
    1438:	e8bd 0f00 	ldmia.w	sp!, {r8, r9, sl, fp}
    143c:	bdf0      	pop	{r4, r5, r6, r7, pc}

0000143e <_ZN110_$LT$$LT$cortex_m_rt..ExceptionFrame$u20$as$u20$core..fmt..Debug$GT$..fmt..Hex$u20$as$u20$core..fmt..Debug$GT$3fmt17hf020cdd8e88c996aE>:
    143e:	b580      	push	{r7, lr}
    1440:	466f      	mov	r7, sp
    1442:	b088      	sub	sp, #32
    1444:	4613      	mov	r3, r2
    1446:	f241 2275 	movw	r2, #4725	; 0x1275
    144a:	f2c0 0200 	movt	r2, #0
    144e:	e9cd 0200 	strd	r0, r2, [sp]
    1452:	2001      	movs	r0, #1
    1454:	466a      	mov	r2, sp
    1456:	9007      	str	r0, [sp, #28]
    1458:	e9cd 0205 	strd	r0, r2, [sp, #20]
    145c:	f242 0234 	movw	r2, #8244	; 0x2034
    1460:	f2c0 0200 	movt	r2, #0
    1464:	e9cd 0203 	strd	r0, r2, [sp, #12]
    1468:	f242 002c 	movw	r0, #8236	; 0x202c
    146c:	f2c0 0000 	movt	r0, #0
    1470:	aa02      	add	r2, sp, #8
    1472:	9002      	str	r0, [sp, #8]
    1474:	4608      	mov	r0, r1
    1476:	4619      	mov	r1, r3
    1478:	f7ff fa12 	bl	8a0 <_ZN4core3fmt5write17habbe2038e9c9aa1cE>
    147c:	b008      	add	sp, #32
    147e:	bd80      	pop	{r7, pc}

00001480 <DefaultHandler_>:
    1480:	e7fe      	b.n	1480 <DefaultHandler_>

00001482 <DefaultPreInit>:
    1482:	4770      	bx	lr

00001484 <_ZN12tm4c129x_hal6serial51Serial$LT$tm4c129x..UART0$C$TX$C$RX$C$RTS$C$CTS$GT$5uart017h4f4c8256c7b8a5efE>:
    1484:	b5b0      	push	{r4, r5, r7, lr}
    1486:	af02      	add	r7, sp, #8
    1488:	f24c 3000 	movw	r0, #49920	; 0xc300
    148c:	2401      	movs	r4, #1
    148e:	f2c4 30fc 	movt	r0, #17404	; 0x43fc
    1492:	6004      	str	r4, [r0, #0]
    1494:	f000 fcb9 	bl	1e0a <__nop>
    1498:	f000 fcb7 	bl	1e0a <__nop>
    149c:	f000 fcb5 	bl	1e0a <__nop>
    14a0:	f24a 3000 	movw	r0, #41728	; 0xa300
    14a4:	2500      	movs	r5, #0
    14a6:	f2c4 30fc 	movt	r0, #17404	; 0x43fc
    14aa:	6004      	str	r4, [r0, #0]
    14ac:	6005      	str	r5, [r0, #0]
    14ae:	2000      	movs	r0, #0
    14b0:	f000 fbdb 	bl	1c6a <_ZN8tm4c_hal2bb8spin_bit17h146c89e800ee8236E>
    14b4:	f24c 0024 	movw	r0, #49188	; 0xc024
    14b8:	f240 0100 	movw	r1, #0
    14bc:	f2c4 0000 	movt	r0, #16384	; 0x4000
    14c0:	f2c2 0100 	movt	r1, #8192	; 0x2000
    14c4:	60c5      	str	r5, [r0, #12]
    14c6:	6849      	ldr	r1, [r1, #4]
    14c8:	0f4a      	lsrs	r2, r1, #29
    14ca:	bf01      	itttt	eq
    14cc:	00c9      	lsleq	r1, r1, #3
    14ce:	f24b 32c5 	movweq	r2, #46021	; 0xb3c5
    14d2:	f2c9 12a2 	movteq	r2, #37282	; 0x91a2
    14d6:	fba1 1202 	umulleq	r1, r2, r1, r2
    14da:	bf01      	itttt	eq
    14dc:	eb04 4112 	addeq.w	r1, r4, r2, lsr #16
    14e0:	09ca      	lsreq	r2, r1, #7
    14e2:	6002      	streq	r2, [r0, #0]
    14e4:	f3c1 0145 	ubfxeq	r1, r1, #1, #6
    14e8:	bf01      	itttt	eq
    14ea:	6041      	streq	r1, [r0, #4]
    14ec:	2170      	moveq	r1, #112	; 0x70
    14ee:	6081      	streq	r1, [r0, #8]
    14f0:	68c1      	ldreq	r1, [r0, #12]
    14f2:	bf01      	itttt	eq
    14f4:	f240 3201 	movweq	r2, #769	; 0x301
    14f8:	4311      	orreq	r1, r2
    14fa:	60c1      	streq	r1, [r0, #12]
    14fc:	bdb0      	popeq	{r4, r5, r7, pc}
    14fe:	f242 0060 	movw	r0, #8288	; 0x2060
    1502:	2121      	movs	r1, #33	; 0x21
    1504:	f2c0 0000 	movt	r0, #0
    1508:	f7ff f9c5 	bl	896 <_ZN4core9panicking5panic17h3b40e675b01166f8E>
    150c:	defe      	udf	#254	; 0xfe

0000150e <_ZN110_$LT$tm4c129x_hal..serial..Serial$LT$tm4c129x..UART0$C$TX$C$RX$C$RTS$C$CTS$GT$$u20$as$u20$core..fmt..Write$GT$9write_str17h0c0a486e83de439aE>:
    150e:	b580      	push	{r7, lr}
    1510:	466f      	mov	r7, sp
    1512:	7800      	ldrb	r0, [r0, #0]
    1514:	2801      	cmp	r0, #1
    1516:	d117      	bne.n	1548 <_ZN110_$LT$tm4c129x_hal..serial..Serial$LT$tm4c129x..UART0$C$TX$C$RX$C$RTS$C$CTS$GT$$u20$as$u20$core..fmt..Write$GT$9write_str17h0c0a486e83de439aE+0x3a>
    1518:	eb01 0e02 	add.w	lr, r1, r2
    151c:	f24c 0200 	movw	r2, #49152	; 0xc000
    1520:	f2c4 0200 	movt	r2, #16384	; 0x4000
    1524:	f04f 0c0d 	mov.w	ip, #13
    1528:	4571      	cmp	r1, lr
    152a:	d01c      	beq.n	1566 <_ZN110_$LT$tm4c129x_hal..serial..Serial$LT$tm4c129x..UART0$C$TX$C$RX$C$RTS$C$CTS$GT$$u20$as$u20$core..fmt..Write$GT$9write_str17h0c0a486e83de439aE+0x58>
    152c:	f811 3b01 	ldrb.w	r3, [r1], #1
    1530:	2b0a      	cmp	r3, #10
    1532:	d104      	bne.n	153e <_ZN110_$LT$tm4c129x_hal..serial..Serial$LT$tm4c129x..UART0$C$TX$C$RX$C$RTS$C$CTS$GT$$u20$as$u20$core..fmt..Write$GT$9write_str17h0c0a486e83de439aE+0x30>
    1534:	6990      	ldr	r0, [r2, #24]
    1536:	0680      	lsls	r0, r0, #26
    1538:	d4fc      	bmi.n	1534 <_ZN110_$LT$tm4c129x_hal..serial..Serial$LT$tm4c129x..UART0$C$TX$C$RX$C$RTS$C$CTS$GT$$u20$as$u20$core..fmt..Write$GT$9write_str17h0c0a486e83de439aE+0x26>
    153a:	f8c2 c000 	str.w	ip, [r2]
    153e:	6990      	ldr	r0, [r2, #24]
    1540:	0680      	lsls	r0, r0, #26
    1542:	d4fc      	bmi.n	153e <_ZN110_$LT$tm4c129x_hal..serial..Serial$LT$tm4c129x..UART0$C$TX$C$RX$C$RTS$C$CTS$GT$$u20$as$u20$core..fmt..Write$GT$9write_str17h0c0a486e83de439aE+0x30>
    1544:	6013      	str	r3, [r2, #0]
    1546:	e7ef      	b.n	1528 <_ZN110_$LT$tm4c129x_hal..serial..Serial$LT$tm4c129x..UART0$C$TX$C$RX$C$RTS$C$CTS$GT$$u20$as$u20$core..fmt..Write$GT$9write_str17h0c0a486e83de439aE+0x1a>
    1548:	b16a      	cbz	r2, 1566 <_ZN110_$LT$tm4c129x_hal..serial..Serial$LT$tm4c129x..UART0$C$TX$C$RX$C$RTS$C$CTS$GT$$u20$as$u20$core..fmt..Write$GT$9write_str17h0c0a486e83de439aE+0x58>
    154a:	eb01 0c02 	add.w	ip, r1, r2
    154e:	f24c 0200 	movw	r2, #49152	; 0xc000
    1552:	f2c4 0200 	movt	r2, #16384	; 0x4000
    1556:	780b      	ldrb	r3, [r1, #0]
    1558:	6990      	ldr	r0, [r2, #24]
    155a:	0680      	lsls	r0, r0, #26
    155c:	d4fc      	bmi.n	1558 <_ZN110_$LT$tm4c129x_hal..serial..Serial$LT$tm4c129x..UART0$C$TX$C$RX$C$RTS$C$CTS$GT$$u20$as$u20$core..fmt..Write$GT$9write_str17h0c0a486e83de439aE+0x4a>
    155e:	3101      	adds	r1, #1
    1560:	6013      	str	r3, [r2, #0]
    1562:	4561      	cmp	r1, ip
    1564:	d1f7      	bne.n	1556 <_ZN110_$LT$tm4c129x_hal..serial..Serial$LT$tm4c129x..UART0$C$TX$C$RX$C$RTS$C$CTS$GT$$u20$as$u20$core..fmt..Write$GT$9write_str17h0c0a486e83de439aE+0x48>
    1566:	bd80      	pop	{r7, pc}

00001568 <_ZN4core3fmt5Write9write_fmt17h4f2ecd8c5d51a649E>:
    1568:	b5f0      	push	{r4, r5, r6, r7, lr}
    156a:	af03      	add	r7, sp, #12
    156c:	f84d bd04 	str.w	fp, [sp, #-4]!
    1570:	b088      	sub	sp, #32
    1572:	9001      	str	r0, [sp, #4]
    1574:	aa02      	add	r2, sp, #8
    1576:	e891 5078 	ldmia.w	r1, {r3, r4, r5, r6, ip, lr}
    157a:	f242 0184 	movw	r1, #8324	; 0x2084
    157e:	4610      	mov	r0, r2
    1580:	f2c0 0100 	movt	r1, #0
    1584:	e880 5078 	stmia.w	r0, {r3, r4, r5, r6, ip, lr}
    1588:	a801      	add	r0, sp, #4
    158a:	f7ff f989 	bl	8a0 <_ZN4core3fmt5write17habbe2038e9c9aa1cE>
    158e:	b008      	add	sp, #32
    1590:	f85d bb04 	ldr.w	fp, [sp], #4
    1594:	bdf0      	pop	{r4, r5, r6, r7, pc}

00001596 <_ZN4core3ptr362drop_in_place$LT$$RF$mut$u20$tm4c129x_hal..serial..Serial$LT$tm4c129x..UART0$C$tm4c129x_hal..gpio..gpioa..PA1$LT$tm4c_hal..gpio..AlternateFunction$LT$tm4c_hal..gpio..AF1$C$tm4c_hal..gpio..PushPull$GT$$GT$$C$tm4c129x_hal..gpio..gpioa..PA0$LT$tm4c_hal..gpio..AlternateFunction$LT$tm4c_hal..gpio..AF1$C$tm4c_hal..gpio..PushPull$GT$$GT$$C$$LP$$RP$$C$$LP$$RP$$GT$$GT$17h829b198b5b931477E>:
    1596:	4770      	bx	lr

00001598 <_ZN50_$LT$$RF$mut$u20$W$u20$as$u20$core..fmt..Write$GT$9write_str17h628da85dfd902067E>:
    1598:	b580      	push	{r7, lr}
    159a:	466f      	mov	r7, sp
    159c:	6800      	ldr	r0, [r0, #0]
    159e:	f7ff ffb6 	bl	150e <_ZN110_$LT$tm4c129x_hal..serial..Serial$LT$tm4c129x..UART0$C$TX$C$RX$C$RTS$C$CTS$GT$$u20$as$u20$core..fmt..Write$GT$9write_str17h0c0a486e83de439aE>
    15a2:	2000      	movs	r0, #0
    15a4:	bd80      	pop	{r7, pc}

000015a6 <_ZN50_$LT$$RF$mut$u20$W$u20$as$u20$core..fmt..Write$GT$10write_char17h622c0c97e9744e08E>:
    15a6:	b580      	push	{r7, lr}
    15a8:	466f      	mov	r7, sp
    15aa:	b082      	sub	sp, #8
    15ac:	6800      	ldr	r0, [r0, #0]
    15ae:	2200      	movs	r2, #0
    15b0:	2980      	cmp	r1, #128	; 0x80
    15b2:	9201      	str	r2, [sp, #4]
    15b4:	d203      	bcs.n	15be <_ZN50_$LT$$RF$mut$u20$W$u20$as$u20$core..fmt..Write$GT$10write_char17h622c0c97e9744e08E+0x18>
    15b6:	f88d 1004 	strb.w	r1, [sp, #4]
    15ba:	2201      	movs	r2, #1
    15bc:	e02f      	b.n	161e <_ZN50_$LT$$RF$mut$u20$W$u20$as$u20$core..fmt..Write$GT$10write_char17h622c0c97e9744e08E+0x78>
    15be:	2202      	movs	r2, #2
    15c0:	460b      	mov	r3, r1
    15c2:	f362 139f 	bfi	r3, r2, #6, #26
    15c6:	f5b1 6f00 	cmp.w	r1, #2048	; 0x800
    15ca:	d205      	bcs.n	15d8 <_ZN50_$LT$$RF$mut$u20$W$u20$as$u20$core..fmt..Write$GT$10write_char17h622c0c97e9744e08E+0x32>
    15cc:	f88d 3005 	strb.w	r3, [sp, #5]
    15d0:	23c0      	movs	r3, #192	; 0xc0
    15d2:	ea43 1191 	orr.w	r1, r3, r1, lsr #6
    15d6:	e020      	b.n	161a <_ZN50_$LT$$RF$mut$u20$W$u20$as$u20$core..fmt..Write$GT$10write_char17h622c0c97e9744e08E+0x74>
    15d8:	f5b1 3f80 	cmp.w	r1, #65536	; 0x10000
    15dc:	d20d      	bcs.n	15fa <_ZN50_$LT$$RF$mut$u20$W$u20$as$u20$core..fmt..Write$GT$10write_char17h622c0c97e9744e08E+0x54>
    15de:	f88d 3006 	strb.w	r3, [sp, #6]
    15e2:	098b      	lsrs	r3, r1, #6
    15e4:	f362 139f 	bfi	r3, r2, #6, #26
    15e8:	22e0      	movs	r2, #224	; 0xe0
    15ea:	ea42 3111 	orr.w	r1, r2, r1, lsr #12
    15ee:	f88d 3005 	strb.w	r3, [sp, #5]
    15f2:	f88d 1004 	strb.w	r1, [sp, #4]
    15f6:	2203      	movs	r2, #3
    15f8:	e011      	b.n	161e <_ZN50_$LT$$RF$mut$u20$W$u20$as$u20$core..fmt..Write$GT$10write_char17h622c0c97e9744e08E+0x78>
    15fa:	f88d 3007 	strb.w	r3, [sp, #7]
    15fe:	098b      	lsrs	r3, r1, #6
    1600:	f362 139f 	bfi	r3, r2, #6, #26
    1604:	f88d 3006 	strb.w	r3, [sp, #6]
    1608:	0b0b      	lsrs	r3, r1, #12
    160a:	f362 139f 	bfi	r3, r2, #6, #26
    160e:	22f0      	movs	r2, #240	; 0xf0
    1610:	ea42 4191 	orr.w	r1, r2, r1, lsr #18
    1614:	2204      	movs	r2, #4
    1616:	f88d 3005 	strb.w	r3, [sp, #5]
    161a:	f88d 1004 	strb.w	r1, [sp, #4]
    161e:	a901      	add	r1, sp, #4
    1620:	f7ff ff75 	bl	150e <_ZN110_$LT$tm4c129x_hal..serial..Serial$LT$tm4c129x..UART0$C$TX$C$RX$C$RTS$C$CTS$GT$$u20$as$u20$core..fmt..Write$GT$9write_str17h0c0a486e83de439aE>
    1624:	2000      	movs	r0, #0
    1626:	b002      	add	sp, #8
    1628:	bd80      	pop	{r7, pc}

0000162a <_ZN50_$LT$$RF$mut$u20$W$u20$as$u20$core..fmt..Write$GT$9write_fmt17h87b36e5e03a18ad1E>:
    162a:	b5f0      	push	{r4, r5, r6, r7, lr}
    162c:	af03      	add	r7, sp, #12
    162e:	f84d bd04 	str.w	fp, [sp, #-4]!
    1632:	b088      	sub	sp, #32
    1634:	6800      	ldr	r0, [r0, #0]
    1636:	aa02      	add	r2, sp, #8
    1638:	9001      	str	r0, [sp, #4]
    163a:	e891 5078 	ldmia.w	r1, {r3, r4, r5, r6, ip, lr}
    163e:	4610      	mov	r0, r2
    1640:	f242 0184 	movw	r1, #8324	; 0x2084
    1644:	f2c0 0100 	movt	r1, #0
    1648:	e880 5078 	stmia.w	r0, {r3, r4, r5, r6, ip, lr}
    164c:	a801      	add	r0, sp, #4
    164e:	f7ff f927 	bl	8a0 <_ZN4core3fmt5write17habbe2038e9c9aa1cE>
    1652:	b008      	add	sp, #32
    1654:	f85d bb04 	ldr.w	fp, [sp], #4
    1658:	bdf0      	pop	{r4, r5, r6, r7, pc}

0000165a <_ZN17tm4c129_launchpad5board5Board3new17hae7b632f23acd967E>:
    165a:	b5f0      	push	{r4, r5, r6, r7, lr}
    165c:	af03      	add	r7, sp, #12
    165e:	f84d 8d04 	str.w	r8, [sp, #-4]!
    1662:	f000 fbd4 	bl	1e0e <__primask_r>
    1666:	4604      	mov	r4, r0
    1668:	f000 fbcb 	bl	1e02 <__cpsid>
    166c:	f000 fbcf 	bl	1e0e <__primask_r>
    1670:	4605      	mov	r5, r0
    1672:	f000 fbc6 	bl	1e02 <__cpsid>
    1676:	f240 0809 	movw	r8, #9
    167a:	f005 0001 	and.w	r0, r5, #1
    167e:	f2c2 0800 	movt	r8, #8192	; 0x2000
    1682:	f898 6000 	ldrb.w	r6, [r8]
    1686:	b916      	cbnz	r6, 168e <_ZN17tm4c129_launchpad5board5Board3new17hae7b632f23acd967E+0x34>
    1688:	2101      	movs	r1, #1
    168a:	f888 1000 	strb.w	r1, [r8]
    168e:	b908      	cbnz	r0, 1694 <_ZN17tm4c129_launchpad5board5Board3new17hae7b632f23acd967E+0x3a>
    1690:	f000 fbb9 	bl	1e06 <__cpsie>
    1694:	f004 0001 	and.w	r0, r4, #1
    1698:	b916      	cbnz	r6, 16a0 <_ZN17tm4c129_launchpad5board5Board3new17hae7b632f23acd967E+0x46>
    169a:	2101      	movs	r1, #1
    169c:	f888 1000 	strb.w	r1, [r8]
    16a0:	b908      	cbnz	r0, 16a6 <_ZN17tm4c129_launchpad5board5Board3new17hae7b632f23acd967E+0x4c>
    16a2:	f000 fbb0 	bl	1e06 <__cpsie>
    16a6:	b106      	cbz	r6, 16aa <_ZN17tm4c129_launchpad5board5Board3new17hae7b632f23acd967E+0x50>
    16a8:	e7fe      	b.n	16a8 <_ZN17tm4c129_launchpad5board5Board3new17hae7b632f23acd967E+0x4e>
    16aa:	f000 fbb0 	bl	1e0e <__primask_r>
    16ae:	4604      	mov	r4, r0
    16b0:	f000 fba7 	bl	1e02 <__cpsid>
    16b4:	f240 0008 	movw	r0, #8
    16b8:	f004 0101 	and.w	r1, r4, #1
    16bc:	f2c2 0000 	movt	r0, #8192	; 0x2000
    16c0:	7805      	ldrb	r5, [r0, #0]
    16c2:	b90d      	cbnz	r5, 16c8 <_ZN17tm4c129_launchpad5board5Board3new17hae7b632f23acd967E+0x6e>
    16c4:	2201      	movs	r2, #1
    16c6:	7002      	strb	r2, [r0, #0]
    16c8:	b909      	cbnz	r1, 16ce <_ZN17tm4c129_launchpad5board5Board3new17hae7b632f23acd967E+0x74>
    16ca:	f000 fb9c 	bl	1e06 <__cpsie>
    16ce:	b105      	cbz	r5, 16d2 <_ZN17tm4c129_launchpad5board5Board3new17hae7b632f23acd967E+0x78>
    16d0:	e7fe      	b.n	16d0 <_ZN17tm4c129_launchpad5board5Board3new17hae7b632f23acd967E+0x76>
    16d2:	f64e 5088 	movw	r0, #60808	; 0xed88
    16d6:	f24e 047c 	movw	r4, #57468	; 0xe07c
    16da:	f2ce 0000 	movt	r0, #57344	; 0xe000
    16de:	f2c4 040f 	movt	r4, #16399	; 0x400f
    16e2:	6801      	ldr	r1, [r0, #0]
    16e4:	f441 0170 	orr.w	r1, r1, #15728640	; 0xf00000
    16e8:	6001      	str	r1, [r0, #0]
    16ea:	6820      	ldr	r0, [r4, #0]
    16ec:	2104      	movs	r1, #4
    16ee:	f361 0084 	bfi	r0, r1, #2, #3
    16f2:	6020      	str	r0, [r4, #0]
    16f4:	f854 0c2c 	ldr.w	r0, [r4, #-44]
    16f8:	05c0      	lsls	r0, r0, #23
    16fa:	d402      	bmi.n	1702 <_ZN17tm4c129_launchpad5board5Board3new17hae7b632f23acd967E+0xa8>
    16fc:	f000 fb85 	bl	1e0a <__nop>
    1700:	e7f8      	b.n	16f4 <_ZN17tm4c129_launchpad5board5Board3new17hae7b632f23acd967E+0x9a>
    1702:	6b60      	ldr	r0, [r4, #52]	; 0x34
    1704:	2103      	movs	r1, #3
    1706:	f361 601b 	bfi	r0, r1, #24, #4
    170a:	6360      	str	r0, [r4, #52]	; 0x34
    170c:	f8d4 00e8 	ldr.w	r0, [r4, #232]	; 0xe8
    1710:	f641 711f 	movw	r1, #7967	; 0x1f1f
    1714:	4388      	bics	r0, r1
    1716:	2160      	movs	r1, #96	; 0x60
    1718:	3004      	adds	r0, #4
    171a:	f8c4 00e8 	str.w	r0, [r4, #232]	; 0xe8
    171e:	f8d4 00e4 	ldr.w	r0, [r4, #228]	; 0xe4
    1722:	f361 0013 	bfi	r0, r1, #0, #20
    1726:	f8c4 00e4 	str.w	r0, [r4, #228]	; 0xe4
    172a:	f8d4 00e4 	ldr.w	r0, [r4, #228]	; 0xe4
    172e:	f440 0000 	orr.w	r0, r0, #8388608	; 0x800000
    1732:	f8c4 00e4 	str.w	r0, [r4, #228]	; 0xe4
    1736:	f8d4 00ec 	ldr.w	r0, [r4, #236]	; 0xec
    173a:	07c0      	lsls	r0, r0, #31
    173c:	d102      	bne.n	1744 <_ZN17tm4c129_launchpad5board5Board3new17hae7b632f23acd967E+0xea>
    173e:	f000 fb64 	bl	1e0a <__nop>
    1742:	e7f8      	b.n	1736 <_ZN17tm4c129_launchpad5board5Board3new17hae7b632f23acd967E+0xdc>
    1744:	6c60      	ldr	r0, [r4, #68]	; 0x44
    1746:	f64f 4110 	movw	r1, #64528	; 0xfc10
    174a:	f6cf 4110 	movt	r1, #64528	; 0xfc10
    174e:	f647 0240 	movw	r2, #30784	; 0x7840
    1752:	4008      	ands	r0, r1
    1754:	f64f 4100 	movw	r1, #64512	; 0xfc00
    1758:	f040 2001 	orr.w	r0, r0, #16777472	; 0x1000100
    175c:	f6c6 71ff 	movt	r1, #28671	; 0x6fff
    1760:	f040 1085 	orr.w	r0, r0, #8716421	; 0x850085
    1764:	6460      	str	r0, [r4, #68]	; 0x44
    1766:	6b60      	ldr	r0, [r4, #52]	; 0x34
    1768:	f24c 1814 	movw	r8, #49428	; 0xc114
    176c:	f2c0 127d 	movt	r2, #381	; 0x17d
    1770:	f2c4 38fc 	movt	r8, #17404	; 0x43fc
    1774:	4008      	ands	r0, r1
    1776:	f640 6100 	movw	r1, #3584	; 0xe00
    177a:	f040 4010 	orr.w	r0, r0, #2415919104	; 0x90000000
    177e:	f2c0 7127 	movt	r1, #1831	; 0x727
    1782:	f040 0003 	orr.w	r0, r0, #3
    1786:	6360      	str	r0, [r4, #52]	; 0x34
    1788:	f240 0000 	movw	r0, #0
    178c:	2401      	movs	r4, #1
    178e:	f2c2 0000 	movt	r0, #8192	; 0x2000
    1792:	e9c0 2100 	strd	r2, r1, [r0]
    1796:	f8c8 401c 	str.w	r4, [r8, #28]
    179a:	f000 fb36 	bl	1e0a <__nop>
    179e:	f000 fb34 	bl	1e0a <__nop>
    17a2:	f000 fb32 	bl	1e0a <__nop>
    17a6:	f24a 1614 	movw	r6, #41236	; 0xa114
    17aa:	200c      	movs	r0, #12
    17ac:	f2c4 36fc 	movt	r6, #17404	; 0x43fc
    17b0:	2500      	movs	r5, #0
    17b2:	61f4      	str	r4, [r6, #28]
    17b4:	61f5      	str	r5, [r6, #28]
    17b6:	f000 fa69 	bl	1c8c <_ZN8tm4c_hal2bb8spin_bit17h8e64888d8ec574e2E>
    17ba:	f248 0000 	movw	r0, #32768	; 0x8000
    17be:	f24a 1180 	movw	r1, #41344	; 0xa180
    17c2:	f248 4204 	movw	r2, #33796	; 0x8404
    17c6:	f2c4 20c8 	movt	r0, #17096	; 0x42c8
    17ca:	f2c4 21c8 	movt	r1, #17096	; 0x42c8
    17ce:	f2c4 22c8 	movt	r2, #17096	; 0x42c8
    17d2:	f8c0 5400 	str.w	r5, [r0, #1024]	; 0x400
    17d6:	6004      	str	r4, [r0, #0]
    17d8:	600d      	str	r5, [r1, #0]
    17da:	f8c1 5080 	str.w	r5, [r1, #128]	; 0x80
    17de:	f8c1 5100 	str.w	r5, [r1, #256]	; 0x100
    17e2:	f8c1 4200 	str.w	r4, [r1, #512]	; 0x200
    17e6:	6015      	str	r5, [r2, #0]
    17e8:	6044      	str	r4, [r0, #4]
    17ea:	604d      	str	r5, [r1, #4]
    17ec:	f8c1 5084 	str.w	r5, [r1, #132]	; 0x84
    17f0:	f8c1 5104 	str.w	r5, [r1, #260]	; 0x104
    17f4:	f8c1 4204 	str.w	r4, [r1, #516]	; 0x204
    17f8:	f8c8 4000 	str.w	r4, [r8]
    17fc:	f000 fb05 	bl	1e0a <__nop>
    1800:	f000 fb03 	bl	1e0a <__nop>
    1804:	f000 fb01 	bl	1e0a <__nop>
    1808:	2005      	movs	r0, #5
    180a:	6034      	str	r4, [r6, #0]
    180c:	6035      	str	r5, [r6, #0]
    180e:	f000 fa3d 	bl	1c8c <_ZN8tm4c_hal2bb8spin_bit17h8e64888d8ec574e2E>
    1812:	f248 0000 	movw	r0, #32768	; 0x8000
    1816:	f24a 1180 	movw	r1, #41344	; 0xa180
    181a:	f2c4 20ba 	movt	r0, #17082	; 0x42ba
    181e:	f2c4 21ba 	movt	r1, #17082	; 0x42ba
    1822:	f8c0 5400 	str.w	r5, [r0, #1024]	; 0x400
    1826:	6004      	str	r4, [r0, #0]
    1828:	600d      	str	r5, [r1, #0]
    182a:	f8c1 5080 	str.w	r5, [r1, #128]	; 0x80
    182e:	f8c1 5100 	str.w	r5, [r1, #256]	; 0x100
    1832:	f8c1 4200 	str.w	r4, [r1, #512]	; 0x200
    1836:	f8c0 5410 	str.w	r5, [r0, #1040]	; 0x410
    183a:	6104      	str	r4, [r0, #16]
    183c:	610d      	str	r5, [r1, #16]
    183e:	f8c1 5090 	str.w	r5, [r1, #144]	; 0x90
    1842:	f8c1 5110 	str.w	r5, [r1, #272]	; 0x110
    1846:	f8c1 4210 	str.w	r4, [r1, #528]	; 0x210
    184a:	f8c8 400c 	str.w	r4, [r8, #12]
    184e:	f000 fadc 	bl	1e0a <__nop>
    1852:	f000 fada 	bl	1e0a <__nop>
    1856:	f000 fad8 	bl	1e0a <__nop>
    185a:	2008      	movs	r0, #8
    185c:	60f4      	str	r4, [r6, #12]
    185e:	60f5      	str	r5, [r6, #12]
    1860:	f000 fa14 	bl	1c8c <_ZN8tm4c_hal2bb8spin_bit17h8e64888d8ec574e2E>
    1864:	f248 0000 	movw	r0, #32768	; 0x8000
    1868:	f24a 1180 	movw	r1, #41344	; 0xa180
    186c:	f248 4204 	movw	r2, #33796	; 0x8404
    1870:	f24c 6600 	movw	r6, #50688	; 0xc600
    1874:	f2c4 20c0 	movt	r0, #17088	; 0x42c0
    1878:	f2c4 21c0 	movt	r1, #17088	; 0x42c0
    187c:	f2c4 22c0 	movt	r2, #17088	; 0x42c0
    1880:	f2c4 36fc 	movt	r6, #17404	; 0x43fc
    1884:	f8c0 5400 	str.w	r5, [r0, #1024]	; 0x400
    1888:	6005      	str	r5, [r0, #0]
    188a:	600d      	str	r5, [r1, #0]
    188c:	f8c1 4080 	str.w	r4, [r1, #128]	; 0x80
    1890:	f8c1 5100 	str.w	r5, [r1, #256]	; 0x100
    1894:	f8c1 4200 	str.w	r4, [r1, #512]	; 0x200
    1898:	6015      	str	r5, [r2, #0]
    189a:	6045      	str	r5, [r0, #4]
    189c:	604d      	str	r5, [r1, #4]
    189e:	f8c1 4084 	str.w	r4, [r1, #132]	; 0x84
    18a2:	f8c1 5104 	str.w	r5, [r1, #260]	; 0x104
    18a6:	f8c1 4204 	str.w	r4, [r1, #516]	; 0x204
    18aa:	f8c6 4d80 	str.w	r4, [r6, #3456]	; 0xd80
    18ae:	f000 faac 	bl	1e0a <__nop>
    18b2:	f000 faaa 	bl	1e0a <__nop>
    18b6:	f000 faa8 	bl	1e0a <__nop>
    18ba:	6034      	str	r4, [r6, #0]
    18bc:	f000 faa5 	bl	1e0a <__nop>
    18c0:	f000 faa3 	bl	1e0a <__nop>
    18c4:	f000 faa1 	bl	1e0a <__nop>
    18c8:	f24b 3680 	movw	r6, #45952	; 0xb380
    18cc:	f2c4 36fc 	movt	r6, #17404	; 0x43fc
    18d0:	6034      	str	r4, [r6, #0]
    18d2:	f245 3480 	movw	r4, #21376	; 0x5380
    18d6:	f2c4 34fd 	movt	r4, #17405	; 0x43fd
    18da:	6035      	str	r5, [r6, #0]
    18dc:	6820      	ldr	r0, [r4, #0]
    18de:	b910      	cbnz	r0, 18e6 <_ZN17tm4c129_launchpad5board5Board3new17hae7b632f23acd967E+0x28c>
    18e0:	f000 fa93 	bl	1e0a <__nop>
    18e4:	e7fa      	b.n	18dc <_ZN17tm4c129_launchpad5board5Board3new17hae7b632f23acd967E+0x282>
    18e6:	f24f 2580 	movw	r5, #62080	; 0xf280
    18ea:	2001      	movs	r0, #1
    18ec:	f6cf 75ff 	movt	r5, #65535	; 0xffff
    18f0:	5170      	str	r0, [r6, r5]
    18f2:	2000      	movs	r0, #0
    18f4:	5170      	str	r0, [r6, r5]
    18f6:	5960      	ldr	r0, [r4, r5]
    18f8:	b910      	cbnz	r0, 1900 <_ZN17tm4c129_launchpad5board5Board3new17hae7b632f23acd967E+0x2a6>
    18fa:	f000 fa86 	bl	1e0a <__nop>
    18fe:	e7fa      	b.n	18f6 <_ZN17tm4c129_launchpad5board5Board3new17hae7b632f23acd967E+0x29c>
    1900:	f64c 70c4 	movw	r0, #53188	; 0xcfc4
    1904:	f2c4 000e 	movt	r0, #16398	; 0x400e
    1908:	6801      	ldr	r1, [r0, #0]
    190a:	f021 4100 	bic.w	r1, r1, #2147483648	; 0x80000000
    190e:	6001      	str	r1, [r0, #0]
    1910:	6801      	ldr	r1, [r0, #0]
    1912:	f441 6180 	orr.w	r1, r1, #1024	; 0x400
    1916:	6001      	str	r1, [r0, #0]
    1918:	6801      	ldr	r1, [r0, #0]
    191a:	f041 0108 	orr.w	r1, r1, #8
    191e:	6001      	str	r1, [r0, #0]
    1920:	f24c 0000 	movw	r0, #49152	; 0xc000
    1924:	f2c4 000e 	movt	r0, #16398	; 0x400e
    1928:	6801      	ldr	r1, [r0, #0]
    192a:	f441 4180 	orr.w	r1, r1, #16384	; 0x4000
    192e:	6001      	str	r1, [r0, #0]
    1930:	6801      	ldr	r1, [r0, #0]
    1932:	f441 6100 	orr.w	r1, r1, #2048	; 0x800
    1936:	6001      	str	r1, [r0, #0]
    1938:	2001      	movs	r0, #1
    193a:	6030      	str	r0, [r6, #0]
    193c:	2000      	movs	r0, #0
    193e:	6030      	str	r0, [r6, #0]
    1940:	6820      	ldr	r0, [r4, #0]
    1942:	b910      	cbnz	r0, 194a <_ZN17tm4c129_launchpad5board5Board3new17hae7b632f23acd967E+0x2f0>
    1944:	f000 fa61 	bl	1e0a <__nop>
    1948:	e7fa      	b.n	1940 <_ZN17tm4c129_launchpad5board5Board3new17hae7b632f23acd967E+0x2e6>
    194a:	2001      	movs	r0, #1
    194c:	5170      	str	r0, [r6, r5]
    194e:	2000      	movs	r0, #0
    1950:	5170      	str	r0, [r6, r5]
    1952:	5960      	ldr	r0, [r4, r5]
    1954:	b910      	cbnz	r0, 195c <_ZN17tm4c129_launchpad5board5Board3new17hae7b632f23acd967E+0x302>
    1956:	f000 fa58 	bl	1e0a <__nop>
    195a:	e7fa      	b.n	1952 <_ZN17tm4c129_launchpad5board5Board3new17hae7b632f23acd967E+0x2f8>
    195c:	2001      	movs	r0, #1
    195e:	6030      	str	r0, [r6, #0]
    1960:	2000      	movs	r0, #0
    1962:	6030      	str	r0, [r6, #0]
    1964:	6820      	ldr	r0, [r4, #0]
    1966:	b910      	cbnz	r0, 196e <_ZN17tm4c129_launchpad5board5Board3new17hae7b632f23acd967E+0x314>
    1968:	f000 fa4f 	bl	1e0a <__nop>
    196c:	e7fa      	b.n	1964 <_ZN17tm4c129_launchpad5board5Board3new17hae7b632f23acd967E+0x30a>
    196e:	f85d 8b04 	ldr.w	r8, [sp], #4
    1972:	bdf0      	pop	{r4, r5, r6, r7, pc}

00001974 <_ZN17tm4c129_launchpad5board4safe17haa6b4c0b202dad7aE>:
    1974:	b580      	push	{r7, lr}
    1976:	466f      	mov	r7, sp
    1978:	f240 0008 	movw	r0, #8
    197c:	f04f 0801 	mov.w	r8, #1
    1980:	f2c2 0000 	movt	r0, #8192	; 0x2000
    1984:	f880 8000 	strb.w	r8, [r0]
    1988:	f240 0009 	movw	r0, #9
    198c:	f2c2 0000 	movt	r0, #8192	; 0x2000
    1990:	f880 8000 	strb.w	r8, [r0]
    1994:	f24c 1014 	movw	r0, #49428	; 0xc114
    1998:	f2c4 30fc 	movt	r0, #17404	; 0x43fc
    199c:	f8c0 8000 	str.w	r8, [r0]
    19a0:	f000 fa33 	bl	1e0a <__nop>
    19a4:	f000 fa31 	bl	1e0a <__nop>
    19a8:	f000 fa2f 	bl	1e0a <__nop>
    19ac:	f24a 1014 	movw	r0, #41236	; 0xa114
    19b0:	f04f 0900 	mov.w	r9, #0
    19b4:	f2c4 30fc 	movt	r0, #17404	; 0x43fc
    19b8:	f8c0 8000 	str.w	r8, [r0]
    19bc:	f8c0 9000 	str.w	r9, [r0]
    19c0:	2005      	movs	r0, #5
    19c2:	f000 f963 	bl	1c8c <_ZN8tm4c_hal2bb8spin_bit17h8e64888d8ec574e2E>
    19c6:	f24e 0010 	movw	r0, #57360	; 0xe010
    19ca:	f647 7684 	movw	r6, #32644	; 0x7f84
    19ce:	f2ce 0000 	movt	r0, #57344	; 0xe000
    19d2:	f640 5540 	movw	r5, #3392	; 0xd40
    19d6:	6801      	ldr	r1, [r0, #0]
    19d8:	f2c4 26ba 	movt	r6, #17082	; 0x42ba
    19dc:	f2c0 0503 	movt	r5, #3
    19e0:	f041 0104 	orr.w	r1, r1, #4
    19e4:	6001      	str	r1, [r0, #0]
    19e6:	f240 0000 	movw	r0, #0
    19ea:	f2c2 0000 	movt	r0, #8192	; 0x2000
    19ee:	6844      	ldr	r4, [r0, #4]
    19f0:	f24a 1084 	movw	r0, #41348	; 0xa184
    19f4:	f2c4 20ba 	movt	r0, #17082	; 0x42ba
    19f8:	f8c6 9480 	str.w	r9, [r6, #1152]	; 0x480
    19fc:	f8c6 8080 	str.w	r8, [r6, #128]	; 0x80
    1a00:	f8c0 9000 	str.w	r9, [r0]
    1a04:	f8c0 9080 	str.w	r9, [r0, #128]	; 0x80
    1a08:	f8c0 9100 	str.w	r9, [r0, #256]	; 0x100
    1a0c:	f8c0 8200 	str.w	r8, [r0, #512]	; 0x200
    1a10:	4620      	mov	r0, r4
    1a12:	4629      	mov	r1, r5
    1a14:	f8c6 8000 	str.w	r8, [r6]
    1a18:	f000 f984 	bl	1d24 <_ZN92_$LT$tm4c_hal..delay..Delay$u20$as$u20$embedded_hal..blocking..delay..DelayUs$LT$u32$GT$$GT$8delay_us17h8d907488eb0af264E>
    1a1c:	4620      	mov	r0, r4
    1a1e:	4629      	mov	r1, r5
    1a20:	f8c6 9000 	str.w	r9, [r6]
    1a24:	f000 f97e 	bl	1d24 <_ZN92_$LT$tm4c_hal..delay..Delay$u20$as$u20$embedded_hal..blocking..delay..DelayUs$LT$u32$GT$$GT$8delay_us17h8d907488eb0af264E>
    1a28:	e7f2      	b.n	1a10 <_ZN17tm4c129_launchpad5board4safe17haa6b4c0b202dad7aE+0x9c>

00001a2a <_ZN42_$LT$$RF$T$u20$as$u20$core..fmt..Debug$GT$3fmt17h700fafeb40051766E>:
    1a2a:	b5b0      	push	{r4, r5, r7, lr}
    1a2c:	af02      	add	r7, sp, #8
    1a2e:	b08a      	sub	sp, #40	; 0x28
    1a30:	460c      	mov	r4, r1
    1a32:	6805      	ldr	r5, [r0, #0]
    1a34:	e9d1 0106 	ldrd	r0, r1, [r1, #24]
    1a38:	220e      	movs	r2, #14
    1a3a:	68cb      	ldr	r3, [r1, #12]
    1a3c:	f242 010c 	movw	r1, #8204	; 0x200c
    1a40:	f2c0 0100 	movt	r1, #0
    1a44:	4798      	blx	r3
    1a46:	2800      	cmp	r0, #0
    1a48:	bf18      	it	ne
    1a4a:	2001      	movne	r0, #1
    1a4c:	e9cd 4000 	strd	r4, r0, [sp]
    1a50:	f242 011a 	movw	r1, #8218	; 0x201a
    1a54:	6828      	ldr	r0, [r5, #0]
    1a56:	ab02      	add	r3, sp, #8
    1a58:	9002      	str	r0, [sp, #8]
    1a5a:	f2c0 0100 	movt	r1, #0
    1a5e:	4668      	mov	r0, sp
    1a60:	2202      	movs	r2, #2
    1a62:	f7ff fa81 	bl	f68 <_ZN4core3fmt8builders11DebugStruct5field17h650ea8af2cdbbfa6E>
    1a66:	6869      	ldr	r1, [r5, #4]
    1a68:	ab03      	add	r3, sp, #12
    1a6a:	9103      	str	r1, [sp, #12]
    1a6c:	f242 011c 	movw	r1, #8220	; 0x201c
    1a70:	f2c0 0100 	movt	r1, #0
    1a74:	2202      	movs	r2, #2
    1a76:	f7ff fa77 	bl	f68 <_ZN4core3fmt8builders11DebugStruct5field17h650ea8af2cdbbfa6E>
    1a7a:	68a9      	ldr	r1, [r5, #8]
    1a7c:	ab04      	add	r3, sp, #16
    1a7e:	9104      	str	r1, [sp, #16]
    1a80:	f242 011e 	movw	r1, #8222	; 0x201e
    1a84:	f2c0 0100 	movt	r1, #0
    1a88:	2202      	movs	r2, #2
    1a8a:	f7ff fa6d 	bl	f68 <_ZN4core3fmt8builders11DebugStruct5field17h650ea8af2cdbbfa6E>
    1a8e:	68e9      	ldr	r1, [r5, #12]
    1a90:	ab05      	add	r3, sp, #20
    1a92:	9105      	str	r1, [sp, #20]
    1a94:	f242 0120 	movw	r1, #8224	; 0x2020
    1a98:	f2c0 0100 	movt	r1, #0
    1a9c:	2202      	movs	r2, #2
    1a9e:	f7ff fa63 	bl	f68 <_ZN4core3fmt8builders11DebugStruct5field17h650ea8af2cdbbfa6E>
    1aa2:	6929      	ldr	r1, [r5, #16]
    1aa4:	ab06      	add	r3, sp, #24
    1aa6:	9106      	str	r1, [sp, #24]
    1aa8:	f242 0122 	movw	r1, #8226	; 0x2022
    1aac:	f2c0 0100 	movt	r1, #0
    1ab0:	2203      	movs	r2, #3
    1ab2:	f7ff fa59 	bl	f68 <_ZN4core3fmt8builders11DebugStruct5field17h650ea8af2cdbbfa6E>
    1ab6:	6969      	ldr	r1, [r5, #20]
    1ab8:	ab07      	add	r3, sp, #28
    1aba:	9107      	str	r1, [sp, #28]
    1abc:	f242 0125 	movw	r1, #8229	; 0x2025
    1ac0:	f2c0 0100 	movt	r1, #0
    1ac4:	2202      	movs	r2, #2
    1ac6:	f7ff fa4f 	bl	f68 <_ZN4core3fmt8builders11DebugStruct5field17h650ea8af2cdbbfa6E>
    1aca:	69a9      	ldr	r1, [r5, #24]
    1acc:	ab08      	add	r3, sp, #32
    1ace:	9108      	str	r1, [sp, #32]
    1ad0:	f242 0127 	movw	r1, #8231	; 0x2027
    1ad4:	f2c0 0100 	movt	r1, #0
    1ad8:	2202      	movs	r2, #2
    1ada:	f7ff fa45 	bl	f68 <_ZN4core3fmt8builders11DebugStruct5field17h650ea8af2cdbbfa6E>
    1ade:	69e9      	ldr	r1, [r5, #28]
    1ae0:	ab09      	add	r3, sp, #36	; 0x24
    1ae2:	9109      	str	r1, [sp, #36]	; 0x24
    1ae4:	f641 7118 	movw	r1, #7960	; 0x1f18
    1ae8:	f2c0 0100 	movt	r1, #0
    1aec:	2204      	movs	r2, #4
    1aee:	f7ff fa3b 	bl	f68 <_ZN4core3fmt8builders11DebugStruct5field17h650ea8af2cdbbfa6E>
    1af2:	f89d 1005 	ldrb.w	r1, [sp, #5]
    1af6:	f89d 0004 	ldrb.w	r0, [sp, #4]
    1afa:	b1c1      	cbz	r1, 1b2e <_ZN42_$LT$$RF$T$u20$as$u20$core..fmt..Debug$GT$3fmt17h700fafeb40051766E+0x104>
    1afc:	b108      	cbz	r0, 1b02 <_ZN42_$LT$$RF$T$u20$as$u20$core..fmt..Debug$GT$3fmt17h700fafeb40051766E+0xd8>
    1afe:	2001      	movs	r0, #1
    1b00:	e015      	b.n	1b2e <_ZN42_$LT$$RF$T$u20$as$u20$core..fmt..Debug$GT$3fmt17h700fafeb40051766E+0x104>
    1b02:	9900      	ldr	r1, [sp, #0]
    1b04:	7808      	ldrb	r0, [r1, #0]
    1b06:	0740      	lsls	r0, r0, #29
    1b08:	d408      	bmi.n	1b1c <_ZN42_$LT$$RF$T$u20$as$u20$core..fmt..Debug$GT$3fmt17h700fafeb40051766E+0xf2>
    1b0a:	e9d1 0106 	ldrd	r0, r1, [r1, #24]
    1b0e:	2202      	movs	r2, #2
    1b10:	68cb      	ldr	r3, [r1, #12]
    1b12:	f641 7127 	movw	r1, #7975	; 0x1f27
    1b16:	f2c0 0100 	movt	r1, #0
    1b1a:	e007      	b.n	1b2c <_ZN42_$LT$$RF$T$u20$as$u20$core..fmt..Debug$GT$3fmt17h700fafeb40051766E+0x102>
    1b1c:	e9d1 0106 	ldrd	r0, r1, [r1, #24]
    1b20:	2201      	movs	r2, #1
    1b22:	68cb      	ldr	r3, [r1, #12]
    1b24:	f641 7126 	movw	r1, #7974	; 0x1f26
    1b28:	f2c0 0100 	movt	r1, #0
    1b2c:	4798      	blx	r3
    1b2e:	2800      	cmp	r0, #0
    1b30:	bf18      	it	ne
    1b32:	2001      	movne	r0, #1
    1b34:	b00a      	add	sp, #40	; 0x28
    1b36:	bdb0      	pop	{r4, r5, r7, pc}

00001b38 <rust_begin_unwind>:
    1b38:	b580      	push	{r7, lr}
    1b3a:	466f      	mov	r7, sp
    1b3c:	f7ff ff1a 	bl	1974 <_ZN17tm4c129_launchpad5board4safe17haa6b4c0b202dad7aE>
    1b40:	defe      	udf	#254	; 0xfe

00001b42 <_ZN12tm4c129x_hal4gpio5gpioa15PA0$LT$MODE$GT$17into_af_push_pull17h024bfd7519ac9ee5E>:
    1b42:	f248 502c 	movw	r0, #34092	; 0x852c
    1b46:	2201      	movs	r2, #1
    1b48:	f2c4 0005 	movt	r0, #16389	; 0x4005
    1b4c:	6801      	ldr	r1, [r0, #0]
    1b4e:	f362 0103 	bfi	r1, r2, #0, #4
    1b52:	6001      	str	r1, [r0, #0]
    1b54:	f248 0000 	movw	r0, #32768	; 0x8000
    1b58:	2100      	movs	r1, #0
    1b5a:	f2c4 20b0 	movt	r0, #17072	; 0x42b0
    1b5e:	f8c0 2400 	str.w	r2, [r0, #1024]	; 0x400
    1b62:	6001      	str	r1, [r0, #0]
    1b64:	f24a 1080 	movw	r0, #41344	; 0xa180
    1b68:	f2c4 20b0 	movt	r0, #17072	; 0x42b0
    1b6c:	6001      	str	r1, [r0, #0]
    1b6e:	f8c0 1080 	str.w	r1, [r0, #128]	; 0x80
    1b72:	f8c0 1100 	str.w	r1, [r0, #256]	; 0x100
    1b76:	f8c0 2200 	str.w	r2, [r0, #512]	; 0x200
    1b7a:	4770      	bx	lr

00001b7c <_ZN12tm4c129x_hal4gpio5gpioa15PA1$LT$MODE$GT$17into_af_push_pull17h80b9444d61a3dc9aE>:
    1b7c:	f248 502c 	movw	r0, #34092	; 0x852c
    1b80:	2201      	movs	r2, #1
    1b82:	f2c4 0005 	movt	r0, #16389	; 0x4005
    1b86:	6801      	ldr	r1, [r0, #0]
    1b88:	f362 1107 	bfi	r1, r2, #4, #4
    1b8c:	6001      	str	r1, [r0, #0]
    1b8e:	f248 0004 	movw	r0, #32772	; 0x8004
    1b92:	2100      	movs	r1, #0
    1b94:	f2c4 20b0 	movt	r0, #17072	; 0x42b0
    1b98:	f8c0 2400 	str.w	r2, [r0, #1024]	; 0x400
    1b9c:	6001      	str	r1, [r0, #0]
    1b9e:	f24a 1084 	movw	r0, #41348	; 0xa184
    1ba2:	f2c4 20b0 	movt	r0, #17072	; 0x42b0
    1ba6:	6001      	str	r1, [r0, #0]
    1ba8:	f8c0 1080 	str.w	r1, [r0, #128]	; 0x80
    1bac:	f8c0 1100 	str.w	r1, [r0, #256]	; 0x100
    1bb0:	f8c0 2200 	str.w	r2, [r0, #512]	; 0x200
    1bb4:	4770      	bx	lr

00001bb6 <main>:
    1bb6:	b580      	push	{r7, lr}
    1bb8:	466f      	mov	r7, sp
    1bba:	f000 f801 	bl	1bc0 <_ZN17tm4c129_launchpad7startup23__cortex_m_rt_call_main17h9b0cca4dca2db8ceE>
    1bbe:	defe      	udf	#254	; 0xfe

00001bc0 <_ZN17tm4c129_launchpad7startup23__cortex_m_rt_call_main17h9b0cca4dca2db8ceE>:
    1bc0:	b580      	push	{r7, lr}
    1bc2:	466f      	mov	r7, sp
    1bc4:	f7ff fd49 	bl	165a <_ZN17tm4c129_launchpad5board5Board3new17hae7b632f23acd967E>
    1bc8:	f7fe fc4a 	bl	460 <stellaris_main>
    1bcc:	defe      	udf	#254	; 0xfe

00001bce <_ZN17tm4c129_launchpad7startup23__cortex_m_rt_HardFault17h1b4eb812e465f309E>:
    1bce:	b580      	push	{r7, lr}
    1bd0:	466f      	mov	r7, sp
    1bd2:	b08a      	sub	sp, #40	; 0x28
    1bd4:	f240 0108 	movw	r1, #8
    1bd8:	2401      	movs	r4, #1
    1bda:	f2c2 0100 	movt	r1, #8192	; 0x2000
    1bde:	9000      	str	r0, [sp, #0]
    1be0:	700c      	strb	r4, [r1, #0]
    1be2:	f000 f864 	bl	1cae <_ZN12tm4c129x_hal4gpio5gpioa82_$LT$impl$u20$tm4c129x_hal..gpio..GpioExt$u20$for$u20$tm4c129x..GPIO_PORTA_AHB$GT$5split17h9919a6992afad3dfE>
    1be6:	f7ff ffc9 	bl	1b7c <_ZN12tm4c129x_hal4gpio5gpioa15PA1$LT$MODE$GT$17into_af_push_pull17h80b9444d61a3dc9aE>
    1bea:	f7ff ffaa 	bl	1b42 <_ZN12tm4c129x_hal4gpio5gpioa15PA0$LT$MODE$GT$17into_af_push_pull17h024bfd7519ac9ee5E>
    1bee:	f7ff fc49 	bl	1484 <_ZN12tm4c129x_hal6serial51Serial$LT$tm4c129x..UART0$C$TX$C$RX$C$RTS$C$CTS$GT$5uart017h4f4c8256c7b8a5efE>
    1bf2:	a808      	add	r0, sp, #32
    1bf4:	9006      	str	r0, [sp, #24]
    1bf6:	2000      	movs	r0, #0
    1bf8:	a902      	add	r1, sp, #8
    1bfa:	e9cd 0004 	strd	r0, r0, [sp, #16]
    1bfe:	2002      	movs	r0, #2
    1c00:	9003      	str	r0, [sp, #12]
    1c02:	f242 00a0 	movw	r0, #8352	; 0x20a0
    1c06:	f2c0 0000 	movt	r0, #0
    1c0a:	f807 4c21 	strb.w	r4, [r7, #-33]
    1c0e:	9002      	str	r0, [sp, #8]
    1c10:	f641 202b 	movw	r0, #6699	; 0x1a2b
    1c14:	f2c0 0000 	movt	r0, #0
    1c18:	9407      	str	r4, [sp, #28]
    1c1a:	9009      	str	r0, [sp, #36]	; 0x24
    1c1c:	4668      	mov	r0, sp
    1c1e:	9008      	str	r0, [sp, #32]
    1c20:	f1a7 0021 	sub.w	r0, r7, #33	; 0x21
    1c24:	f7ff fca0 	bl	1568 <_ZN4core3fmt5Write9write_fmt17h4f2ecd8c5d51a649E>
    1c28:	f7ff fea4 	bl	1974 <_ZN17tm4c129_launchpad5board4safe17haa6b4c0b202dad7aE>
    1c2c:	defe      	udf	#254	; 0xfe

00001c2e <NonMaskableInt>:
    1c2e:	4770      	bx	lr

00001c30 <MemoryManagement>:
    1c30:	b580      	push	{r7, lr}
    1c32:	466f      	mov	r7, sp
    1c34:	f7ff fe9e 	bl	1974 <_ZN17tm4c129_launchpad5board4safe17haa6b4c0b202dad7aE>
    1c38:	defe      	udf	#254	; 0xfe

00001c3a <BusFault>:
    1c3a:	b580      	push	{r7, lr}
    1c3c:	466f      	mov	r7, sp
    1c3e:	f7ff fe99 	bl	1974 <_ZN17tm4c129_launchpad5board4safe17haa6b4c0b202dad7aE>
    1c42:	defe      	udf	#254	; 0xfe

00001c44 <UsageFault>:
    1c44:	b580      	push	{r7, lr}
    1c46:	466f      	mov	r7, sp
    1c48:	f7ff fe94 	bl	1974 <_ZN17tm4c129_launchpad5board4safe17haa6b4c0b202dad7aE>
    1c4c:	defe      	udf	#254	; 0xfe

00001c4e <SVCall>:
    1c4e:	4770      	bx	lr

00001c50 <DebugMonitor>:
    1c50:	4770      	bx	lr

00001c52 <PendSV>:
    1c52:	4770      	bx	lr

00001c54 <SysTick>:
    1c54:	4770      	bx	lr

00001c56 <DefaultHandler>:
    1c56:	b580      	push	{r7, lr}
    1c58:	466f      	mov	r7, sp
    1c5a:	f64e 5004 	movw	r0, #60676	; 0xed04
    1c5e:	f2ce 0000 	movt	r0, #57344	; 0xe000
    1c62:	6800      	ldr	r0, [r0, #0]
    1c64:	f7ff fe86 	bl	1974 <_ZN17tm4c129_launchpad5board4safe17haa6b4c0b202dad7aE>
    1c68:	defe      	udf	#254	; 0xfe

00001c6a <_ZN8tm4c_hal2bb8spin_bit17h146c89e800ee8236E>:
    1c6a:	b5b0      	push	{r4, r5, r7, lr}
    1c6c:	af02      	add	r7, sp, #8
    1c6e:	f64e 2518 	movw	r5, #59928	; 0xea18
    1c72:	4604      	mov	r4, r0
    1c74:	f2c4 050f 	movt	r5, #16399	; 0x400f
    1c78:	4628      	mov	r0, r5
    1c7a:	4621      	mov	r1, r4
    1c7c:	f000 f831 	bl	1ce2 <_ZN8tm4c_hal2bb14ref_to_bitband17h839e906f13dea20bE>
    1c80:	6800      	ldr	r0, [r0, #0]
    1c82:	b910      	cbnz	r0, 1c8a <_ZN8tm4c_hal2bb8spin_bit17h146c89e800ee8236E+0x20>
    1c84:	f000 f8c1 	bl	1e0a <__nop>
    1c88:	e7f6      	b.n	1c78 <_ZN8tm4c_hal2bb8spin_bit17h146c89e800ee8236E+0xe>
    1c8a:	bdb0      	pop	{r4, r5, r7, pc}

00001c8c <_ZN8tm4c_hal2bb8spin_bit17h8e64888d8ec574e2E>:
    1c8c:	b5b0      	push	{r4, r5, r7, lr}
    1c8e:	af02      	add	r7, sp, #8
    1c90:	f64e 2508 	movw	r5, #59912	; 0xea08
    1c94:	4604      	mov	r4, r0
    1c96:	f2c4 050f 	movt	r5, #16399	; 0x400f
    1c9a:	4628      	mov	r0, r5
    1c9c:	4621      	mov	r1, r4
    1c9e:	f000 f820 	bl	1ce2 <_ZN8tm4c_hal2bb14ref_to_bitband17h839e906f13dea20bE>
    1ca2:	6800      	ldr	r0, [r0, #0]
    1ca4:	b910      	cbnz	r0, 1cac <_ZN8tm4c_hal2bb8spin_bit17h8e64888d8ec574e2E+0x20>
    1ca6:	f000 f8b0 	bl	1e0a <__nop>
    1caa:	e7f6      	b.n	1c9a <_ZN8tm4c_hal2bb8spin_bit17h8e64888d8ec574e2E+0xe>
    1cac:	bdb0      	pop	{r4, r5, r7, pc}

00001cae <_ZN12tm4c129x_hal4gpio5gpioa82_$LT$impl$u20$tm4c129x_hal..gpio..GpioExt$u20$for$u20$tm4c129x..GPIO_PORTA_AHB$GT$5split17h9919a6992afad3dfE>:
    1cae:	b5d0      	push	{r4, r6, r7, lr}
    1cb0:	af02      	add	r7, sp, #8
    1cb2:	f24c 1000 	movw	r0, #49408	; 0xc100
    1cb6:	2401      	movs	r4, #1
    1cb8:	f2c4 30fc 	movt	r0, #17404	; 0x43fc
    1cbc:	6004      	str	r4, [r0, #0]
    1cbe:	f000 f8a4 	bl	1e0a <__nop>
    1cc2:	f000 f8a2 	bl	1e0a <__nop>
    1cc6:	f000 f8a0 	bl	1e0a <__nop>
    1cca:	f24a 1000 	movw	r0, #41216	; 0xa100
    1cce:	2100      	movs	r1, #0
    1cd0:	f2c4 30fc 	movt	r0, #17404	; 0x43fc
    1cd4:	6004      	str	r4, [r0, #0]
    1cd6:	6001      	str	r1, [r0, #0]
    1cd8:	2000      	movs	r0, #0
    1cda:	e8bd 40d0 	ldmia.w	sp!, {r4, r6, r7, lr}
    1cde:	f7ff bfd5 	b.w	1c8c <_ZN8tm4c_hal2bb8spin_bit17h8e64888d8ec574e2E>

00001ce2 <_ZN8tm4c_hal2bb14ref_to_bitband17h839e906f13dea20bE>:
    1ce2:	b580      	push	{r7, lr}
    1ce4:	466f      	mov	r7, sp
    1ce6:	f020 4270 	bic.w	r2, r0, #4026531840	; 0xf0000000
    1cea:	0ed3      	lsrs	r3, r2, #27
    1cec:	d114      	bne.n	1d18 <_ZN8tm4c_hal2bb14ref_to_bitband17h839e906f13dea20bE+0x36>
    1cee:	b2c9      	uxtb	r1, r1
    1cf0:	0152      	lsls	r2, r2, #5
    1cf2:	eb12 0181 	adds.w	r1, r2, r1, lsl #2
    1cf6:	4291      	cmp	r1, r2
    1cf8:	d306      	bcc.n	1d08 <_ZN8tm4c_hal2bb14ref_to_bitband17h839e906f13dea20bE+0x26>
    1cfa:	f000 4070 	and.w	r0, r0, #4026531840	; 0xf0000000
    1cfe:	1840      	adds	r0, r0, r1
    1d00:	bf3c      	itt	cc
    1d02:	f110 7000 	addscc.w	r0, r0, #33554432	; 0x2000000
    1d06:	bd80      	popcc	{r7, pc}
    1d08:	f242 00e0 	movw	r0, #8416	; 0x20e0
    1d0c:	211c      	movs	r1, #28
    1d0e:	f2c0 0000 	movt	r0, #0
    1d12:	f7fe fdc0 	bl	896 <_ZN4core9panicking5panic17h3b40e675b01166f8E>
    1d16:	defe      	udf	#254	; 0xfe
    1d18:	f242 00b0 	movw	r0, #8368	; 0x20b0
    1d1c:	2121      	movs	r1, #33	; 0x21
    1d1e:	f2c0 0000 	movt	r0, #0
    1d22:	e7f6      	b.n	1d12 <_ZN8tm4c_hal2bb14ref_to_bitband17h839e906f13dea20bE+0x30>

00001d24 <_ZN92_$LT$tm4c_hal..delay..Delay$u20$as$u20$embedded_hal..blocking..delay..DelayUs$LT$u32$GT$$GT$8delay_us17h8d907488eb0af264E>:
    1d24:	b5d0      	push	{r4, r6, r7, lr}
    1d26:	af02      	add	r7, sp, #8
    1d28:	f64d 6c83 	movw	ip, #56963	; 0xde83
    1d2c:	f2c4 3c1b 	movt	ip, #17179	; 0x431b
    1d30:	fba0 230c 	umull	r2, r3, r0, ip
    1d34:	0c9a      	lsrs	r2, r3, #18
    1d36:	fba1 4302 	umull	r4, r3, r1, r2
    1d3a:	2b00      	cmp	r3, #0
    1d3c:	d156      	bne.n	1dec <_ZN92_$LT$tm4c_hal..delay..Delay$u20$as$u20$embedded_hal..blocking..delay..DelayUs$LT$u32$GT$$GT$8delay_us17h8d907488eb0af264E+0xc8>
    1d3e:	f643 5309 	movw	r3, #15625	; 0x3d09
    1d42:	f644 5ed3 	movw	lr, #19923	; 0x4dd3
    1d46:	435a      	muls	r2, r3
    1d48:	f2c1 0e62 	movt	lr, #4194	; 0x1062
    1d4c:	eba0 1282 	sub.w	r2, r0, r2, lsl #6
    1d50:	fba2 230e 	umull	r2, r3, r2, lr
    1d54:	099a      	lsrs	r2, r3, #6
    1d56:	fba1 2302 	umull	r2, r3, r1, r2
    1d5a:	2b00      	cmp	r3, #0
    1d5c:	d146      	bne.n	1dec <_ZN92_$LT$tm4c_hal..delay..Delay$u20$as$u20$embedded_hal..blocking..delay..DelayUs$LT$u32$GT$$GT$8delay_us17h8d907488eb0af264E+0xc8>
    1d5e:	fba2 230e 	umull	r2, r3, r2, lr
    1d62:	eb04 1293 	add.w	r2, r4, r3, lsr #6
    1d66:	42a2      	cmp	r2, r4
    1d68:	d345      	bcc.n	1df6 <_ZN92_$LT$tm4c_hal..delay..Delay$u20$as$u20$embedded_hal..blocking..delay..DelayUs$LT$u32$GT$$GT$8delay_us17h8d907488eb0af264E+0xd2>
    1d6a:	fba0 340e 	umull	r3, r4, r0, lr
    1d6e:	09a3      	lsrs	r3, r4, #6
    1d70:	f44f 747a 	mov.w	r4, #1000	; 0x3e8
    1d74:	fb03 0014 	mls	r0, r3, r4, r0
    1d78:	fba1 0100 	umull	r0, r1, r1, r0
    1d7c:	bbb1      	cbnz	r1, 1dec <_ZN92_$LT$tm4c_hal..delay..Delay$u20$as$u20$embedded_hal..blocking..delay..DelayUs$LT$u32$GT$$GT$8delay_us17h8d907488eb0af264E+0xc8>
    1d7e:	fba0 010c 	umull	r0, r1, r0, ip
    1d82:	eb12 4191 	adds.w	r1, r2, r1, lsr #18
    1d86:	4291      	cmp	r1, r2
    1d88:	d335      	bcc.n	1df6 <_ZN92_$LT$tm4c_hal..delay..Delay$u20$as$u20$embedded_hal..blocking..delay..DelayUs$LT$u32$GT$$GT$8delay_us17h8d907488eb0af264E+0xd2>
    1d8a:	f24e 0010 	movw	r0, #57360	; 0xe010
    1d8e:	f06f 427f 	mvn.w	r2, #4278190080	; 0xff000000
    1d92:	f2ce 0000 	movt	r0, #57344	; 0xe000
    1d96:	2300      	movs	r3, #0
    1d98:	f1b1 7f80 	cmp.w	r1, #16777216	; 0x1000000
    1d9c:	d317      	bcc.n	1dce <_ZN92_$LT$tm4c_hal..delay..Delay$u20$as$u20$embedded_hal..blocking..delay..DelayUs$LT$u32$GT$$GT$8delay_us17h8d907488eb0af264E+0xaa>
    1d9e:	6042      	str	r2, [r0, #4]
    1da0:	6083      	str	r3, [r0, #8]
    1da2:	6804      	ldr	r4, [r0, #0]
    1da4:	f044 0401 	orr.w	r4, r4, #1
    1da8:	6004      	str	r4, [r0, #0]
    1daa:	6804      	ldr	r4, [r0, #0]
    1dac:	03e4      	lsls	r4, r4, #15
    1dae:	d5fc      	bpl.n	1daa <_ZN92_$LT$tm4c_hal..delay..Delay$u20$as$u20$embedded_hal..blocking..delay..DelayUs$LT$u32$GT$$GT$8delay_us17h8d907488eb0af264E+0x86>
    1db0:	6804      	ldr	r4, [r0, #0]
    1db2:	f1b1 7180 	subs.w	r1, r1, #16777216	; 0x1000000
    1db6:	f024 0401 	bic.w	r4, r4, #1
    1dba:	6004      	str	r4, [r0, #0]
    1dbc:	d2ec      	bcs.n	1d98 <_ZN92_$LT$tm4c_hal..delay..Delay$u20$as$u20$embedded_hal..blocking..delay..DelayUs$LT$u32$GT$$GT$8delay_us17h8d907488eb0af264E+0x74>
    1dbe:	f242 1050 	movw	r0, #8528	; 0x2150
    1dc2:	f2c0 0000 	movt	r0, #0
    1dc6:	2121      	movs	r1, #33	; 0x21
    1dc8:	f7fe fd65 	bl	896 <_ZN4core9panicking5panic17h3b40e675b01166f8E>
    1dcc:	defe      	udf	#254	; 0xfe
    1dce:	6041      	str	r1, [r0, #4]
    1dd0:	2100      	movs	r1, #0
    1dd2:	6081      	str	r1, [r0, #8]
    1dd4:	6801      	ldr	r1, [r0, #0]
    1dd6:	f041 0101 	orr.w	r1, r1, #1
    1dda:	6001      	str	r1, [r0, #0]
    1ddc:	6801      	ldr	r1, [r0, #0]
    1dde:	03c9      	lsls	r1, r1, #15
    1de0:	d5fc      	bpl.n	1ddc <_ZN92_$LT$tm4c_hal..delay..Delay$u20$as$u20$embedded_hal..blocking..delay..DelayUs$LT$u32$GT$$GT$8delay_us17h8d907488eb0af264E+0xb8>
    1de2:	6801      	ldr	r1, [r0, #0]
    1de4:	f021 0101 	bic.w	r1, r1, #1
    1de8:	6001      	str	r1, [r0, #0]
    1dea:	bdd0      	pop	{r4, r6, r7, pc}
    1dec:	f242 1000 	movw	r0, #8448	; 0x2100
    1df0:	f2c0 0000 	movt	r0, #0
    1df4:	e7e7      	b.n	1dc6 <_ZN92_$LT$tm4c_hal..delay..Delay$u20$as$u20$embedded_hal..blocking..delay..DelayUs$LT$u32$GT$$GT$8delay_us17h8d907488eb0af264E+0xa2>
    1df6:	f242 1030 	movw	r0, #8496	; 0x2130
    1dfa:	211c      	movs	r1, #28
    1dfc:	f2c0 0000 	movt	r0, #0
    1e00:	e7e2      	b.n	1dc8 <_ZN92_$LT$tm4c_hal..delay..Delay$u20$as$u20$embedded_hal..blocking..delay..DelayUs$LT$u32$GT$$GT$8delay_us17h8d907488eb0af264E+0xa4>

00001e02 <__cpsid>:
    1e02:	b672      	cpsid	i
    1e04:	4770      	bx	lr

00001e06 <__cpsie>:
    1e06:	b662      	cpsie	i
    1e08:	4770      	bx	lr

00001e0a <__nop>:
    1e0a:	bf00      	nop
    1e0c:	4770      	bx	lr

00001e0e <__primask_r>:
    1e0e:	f3ef 8010 	mrs	r0, PRIMASK
    1e12:	4770      	bx	lr

00001e14 <HardFaultTrampoline>:
    1e14:	4670      	mov	r0, lr
    1e16:	2104      	movs	r1, #4
    1e18:	4208      	tst	r0, r1
    1e1a:	d102      	bne.n	1e22 <HardFaultTrampoline+0xe>
    1e1c:	f3ef 8008 	mrs	r0, MSP
    1e20:	e003      	b.n	1e2a <HardFault>
    1e22:	f3ef 8009 	mrs	r0, PSP
    1e26:	e000      	b.n	1e2a <HardFault>

00001e28 <HardFault_>:
    1e28:	e7fe      	b.n	1e28 <HardFault_>

00001e2a <HardFault>:
    1e2a:	b580      	push	{r7, lr}
    1e2c:	466f      	mov	r7, sp
    1e2e:	f7ff fece 	bl	1bce <_ZN17tm4c129_launchpad7startup23__cortex_m_rt_HardFault17h1b4eb812e465f309E>
    1e32:	defe      	udf	#254	; 0xfe
